
Main Program.elf:     file format elf32-avr

Sections:
Idx Name          Size      VMA       LMA       File off  Algn
  0 .data         00000040  00800200  0000184c  000018e0  2**0
                  CONTENTS, ALLOC, LOAD, DATA
  1 .text         0000184c  00000000  00000000  00000094  2**1
                  CONTENTS, ALLOC, LOAD, READONLY, CODE
  2 .bss          00000016  00800240  00800240  00001920  2**0
                  ALLOC
  3 .comment      00000030  00000000  00000000  00001920  2**0
                  CONTENTS, READONLY
  4 .note.gnu.avr.deviceinfo 00000040  00000000  00000000  00001950  2**2
                  CONTENTS, READONLY
  5 .debug_aranges 00000178  00000000  00000000  00001990  2**0
                  CONTENTS, READONLY, DEBUGGING
  6 .debug_info   00002808  00000000  00000000  00001b08  2**0
                  CONTENTS, READONLY, DEBUGGING
  7 .debug_abbrev 000012ab  00000000  00000000  00004310  2**0
                  CONTENTS, READONLY, DEBUGGING
  8 .debug_line   00000f8e  00000000  00000000  000055bb  2**0
                  CONTENTS, READONLY, DEBUGGING
  9 .debug_frame  000004bc  00000000  00000000  0000654c  2**2
                  CONTENTS, READONLY, DEBUGGING
 10 .debug_str    00000b62  00000000  00000000  00006a08  2**0
                  CONTENTS, READONLY, DEBUGGING
 11 .debug_loc    000011e4  00000000  00000000  0000756a  2**0
                  CONTENTS, READONLY, DEBUGGING
 12 .debug_ranges 00000128  00000000  00000000  0000874e  2**0
                  CONTENTS, READONLY, DEBUGGING

Disassembly of section .text:

00000000 <__vectors>:
       0:	a0 c0       	rjmp	.+320    	; 0x142 <__ctors_end>
       2:	00 00       	nop
       4:	15 c1       	rjmp	.+554    	; 0x230 <__vector_1>
       6:	00 00       	nop
       8:	cc c0       	rjmp	.+408    	; 0x1a2 <__bad_interrupt>
       a:	00 00       	nop
       c:	ca c0       	rjmp	.+404    	; 0x1a2 <__bad_interrupt>
       e:	00 00       	nop
      10:	c8 c0       	rjmp	.+400    	; 0x1a2 <__bad_interrupt>
      12:	00 00       	nop
      14:	c6 c0       	rjmp	.+396    	; 0x1a2 <__bad_interrupt>
      16:	00 00       	nop
      18:	c4 c0       	rjmp	.+392    	; 0x1a2 <__bad_interrupt>
      1a:	00 00       	nop
      1c:	c2 c0       	rjmp	.+388    	; 0x1a2 <__bad_interrupt>
      1e:	00 00       	nop
      20:	c0 c0       	rjmp	.+384    	; 0x1a2 <__bad_interrupt>
      22:	00 00       	nop
      24:	be c0       	rjmp	.+380    	; 0x1a2 <__bad_interrupt>
      26:	00 00       	nop
      28:	bc c0       	rjmp	.+376    	; 0x1a2 <__bad_interrupt>
      2a:	00 00       	nop
      2c:	ba c0       	rjmp	.+372    	; 0x1a2 <__bad_interrupt>
      2e:	00 00       	nop
      30:	b8 c0       	rjmp	.+368    	; 0x1a2 <__bad_interrupt>
      32:	00 00       	nop
      34:	b6 c0       	rjmp	.+364    	; 0x1a2 <__bad_interrupt>
      36:	00 00       	nop
      38:	b4 c0       	rjmp	.+360    	; 0x1a2 <__bad_interrupt>
      3a:	00 00       	nop
      3c:	b2 c0       	rjmp	.+356    	; 0x1a2 <__bad_interrupt>
      3e:	00 00       	nop
      40:	b0 c0       	rjmp	.+352    	; 0x1a2 <__bad_interrupt>
      42:	00 00       	nop
      44:	ae c0       	rjmp	.+348    	; 0x1a2 <__bad_interrupt>
      46:	00 00       	nop
      48:	ac c0       	rjmp	.+344    	; 0x1a2 <__bad_interrupt>
      4a:	00 00       	nop
      4c:	aa c0       	rjmp	.+340    	; 0x1a2 <__bad_interrupt>
      4e:	00 00       	nop
      50:	a8 c0       	rjmp	.+336    	; 0x1a2 <__bad_interrupt>
      52:	00 00       	nop
      54:	a6 c0       	rjmp	.+332    	; 0x1a2 <__bad_interrupt>
      56:	00 00       	nop
      58:	a4 c0       	rjmp	.+328    	; 0x1a2 <__bad_interrupt>
      5a:	00 00       	nop
      5c:	a2 c0       	rjmp	.+324    	; 0x1a2 <__bad_interrupt>
      5e:	00 00       	nop
      60:	a0 c0       	rjmp	.+320    	; 0x1a2 <__bad_interrupt>
      62:	00 00       	nop
      64:	9e c0       	rjmp	.+316    	; 0x1a2 <__bad_interrupt>
      66:	00 00       	nop
      68:	9c c0       	rjmp	.+312    	; 0x1a2 <__bad_interrupt>
      6a:	00 00       	nop
      6c:	9a c0       	rjmp	.+308    	; 0x1a2 <__bad_interrupt>
      6e:	00 00       	nop
      70:	98 c0       	rjmp	.+304    	; 0x1a2 <__bad_interrupt>
      72:	00 00       	nop
      74:	96 c0       	rjmp	.+300    	; 0x1a2 <__bad_interrupt>
      76:	00 00       	nop
      78:	94 c0       	rjmp	.+296    	; 0x1a2 <__bad_interrupt>
      7a:	00 00       	nop
      7c:	92 c0       	rjmp	.+292    	; 0x1a2 <__bad_interrupt>
      7e:	00 00       	nop
      80:	79 c1       	rjmp	.+754    	; 0x374 <__vector_32>
      82:	00 00       	nop
      84:	8e c0       	rjmp	.+284    	; 0x1a2 <__bad_interrupt>
      86:	00 00       	nop
      88:	8c c0       	rjmp	.+280    	; 0x1a2 <__bad_interrupt>
      8a:	00 00       	nop
      8c:	8a c0       	rjmp	.+276    	; 0x1a2 <__bad_interrupt>
      8e:	00 00       	nop
      90:	88 c0       	rjmp	.+272    	; 0x1a2 <__bad_interrupt>
      92:	00 00       	nop
      94:	86 c0       	rjmp	.+268    	; 0x1a2 <__bad_interrupt>
      96:	00 00       	nop
      98:	84 c0       	rjmp	.+264    	; 0x1a2 <__bad_interrupt>
      9a:	00 00       	nop
      9c:	82 c0       	rjmp	.+260    	; 0x1a2 <__bad_interrupt>
      9e:	00 00       	nop
      a0:	80 c0       	rjmp	.+256    	; 0x1a2 <__bad_interrupt>
      a2:	00 00       	nop
      a4:	7e c0       	rjmp	.+252    	; 0x1a2 <__bad_interrupt>
      a6:	00 00       	nop
      a8:	7c c0       	rjmp	.+248    	; 0x1a2 <__bad_interrupt>
      aa:	00 00       	nop
      ac:	7a c0       	rjmp	.+244    	; 0x1a2 <__bad_interrupt>
      ae:	00 00       	nop
      b0:	78 c0       	rjmp	.+240    	; 0x1a2 <__bad_interrupt>
      b2:	00 00       	nop
      b4:	76 c0       	rjmp	.+236    	; 0x1a2 <__bad_interrupt>
      b6:	00 00       	nop
      b8:	74 c0       	rjmp	.+232    	; 0x1a2 <__bad_interrupt>
      ba:	00 00       	nop
      bc:	72 c0       	rjmp	.+228    	; 0x1a2 <__bad_interrupt>
      be:	00 00       	nop
      c0:	70 c0       	rjmp	.+224    	; 0x1a2 <__bad_interrupt>
      c2:	00 00       	nop
      c4:	6e c0       	rjmp	.+220    	; 0x1a2 <__bad_interrupt>
      c6:	00 00       	nop
      c8:	6c c0       	rjmp	.+216    	; 0x1a2 <__bad_interrupt>
      ca:	00 00       	nop
      cc:	6a c0       	rjmp	.+212    	; 0x1a2 <__bad_interrupt>
      ce:	00 00       	nop
      d0:	68 c0       	rjmp	.+208    	; 0x1a2 <__bad_interrupt>
      d2:	00 00       	nop
      d4:	66 c0       	rjmp	.+204    	; 0x1a2 <__bad_interrupt>
      d6:	00 00       	nop
      d8:	64 c0       	rjmp	.+200    	; 0x1a2 <__bad_interrupt>
      da:	00 00       	nop
      dc:	62 c0       	rjmp	.+196    	; 0x1a2 <__bad_interrupt>
      de:	00 00       	nop
      e0:	60 c0       	rjmp	.+192    	; 0x1a2 <__bad_interrupt>
      e2:	00 00       	nop
      e4:	57 01       	movw	r10, r14
      e6:	57 01       	movw	r10, r14
      e8:	64 01       	movw	r12, r8
      ea:	71 01       	movw	r14, r2
      ec:	71 01       	movw	r14, r2
      ee:	7e 01       	movw	r14, r28
      f0:	7e 01       	movw	r14, r28
      f2:	8b 01       	movw	r16, r22
      f4:	8b 01       	movw	r16, r22
      f6:	8b 01       	movw	r16, r22
      f8:	91 01       	movw	r18, r2
      fa:	64 03       	mulsu	r22, r20
      fc:	74 03       	mulsu	r23, r20
      fe:	84 03       	fmuls	r16, r20
     100:	94 03       	fmuls	r17, r20
     102:	a4 03       	fmuls	r18, r20
     104:	b4 03       	fmuls	r19, r20
     106:	c4 03       	fmuls	r20, r20
     108:	d4 03       	fmuls	r21, r20
     10a:	b6 04       	cpc	r11, r6
     10c:	e6 03       	fmuls	r22, r22
     10e:	f8 03       	fmulsu	r23, r16
     110:	0a 04       	cpc	r0, r10
     112:	2b 04       	cpc	r2, r11
     114:	37 04       	cpc	r3, r7
     116:	43 04       	cpc	r4, r3
     118:	4f 04       	cpc	r4, r15
     11a:	5b 04       	cpc	r5, r11
     11c:	67 04       	cpc	r6, r7
     11e:	73 04       	cpc	r7, r3
     120:	7f 04       	cpc	r7, r15
     122:	b6 04       	cpc	r11, r6
     124:	8d 04       	cpc	r8, r13
     126:	9b 04       	cpc	r9, r11
     128:	a9 04       	cpc	r10, r9
     12a:	75 07       	cpc	r23, r21
     12c:	81 07       	cpc	r24, r17
     12e:	8d 07       	cpc	r24, r29
     130:	99 07       	cpc	r25, r25
     132:	a5 07       	cpc	r26, r21
     134:	b1 07       	cpc	r27, r17
     136:	bd 07       	cpc	r27, r29
     138:	69 07       	cpc	r22, r25
     13a:	cb 07       	cpc	r28, r27
     13c:	d9 07       	cpc	r29, r25
     13e:	e7 07       	cpc	r30, r23

00000140 <__ctors_start>:
     140:	1d 02       	muls	r17, r29

00000142 <__ctors_end>:
     142:	11 24       	eor	r1, r1
     144:	1f be       	out	0x3f, r1	; 63
     146:	cf ef       	ldi	r28, 0xFF	; 255
     148:	d1 e2       	ldi	r29, 0x21	; 33
     14a:	de bf       	out	0x3e, r29	; 62
     14c:	cd bf       	out	0x3d, r28	; 61
     14e:	00 e0       	ldi	r16, 0x00	; 0
     150:	0c bf       	out	0x3c, r16	; 60

00000152 <__do_copy_data>:
     152:	12 e0       	ldi	r17, 0x02	; 2
     154:	a0 e0       	ldi	r26, 0x00	; 0
     156:	b2 e0       	ldi	r27, 0x02	; 2
     158:	ec e4       	ldi	r30, 0x4C	; 76
     15a:	f8 e1       	ldi	r31, 0x18	; 24
     15c:	00 e0       	ldi	r16, 0x00	; 0
     15e:	0b bf       	out	0x3b, r16	; 59
     160:	02 c0       	rjmp	.+4      	; 0x166 <__do_copy_data+0x14>
     162:	07 90       	elpm	r0, Z+
     164:	0d 92       	st	X+, r0
     166:	a0 34       	cpi	r26, 0x40	; 64
     168:	b1 07       	cpc	r27, r17
     16a:	d9 f7       	brne	.-10     	; 0x162 <__do_copy_data+0x10>

0000016c <__do_clear_bss>:
     16c:	22 e0       	ldi	r18, 0x02	; 2
     16e:	a0 e4       	ldi	r26, 0x40	; 64
     170:	b2 e0       	ldi	r27, 0x02	; 2
     172:	01 c0       	rjmp	.+2      	; 0x176 <.do_clear_bss_start>

00000174 <.do_clear_bss_loop>:
     174:	1d 92       	st	X+, r1

00000176 <.do_clear_bss_start>:
     176:	a6 35       	cpi	r26, 0x56	; 86
     178:	b2 07       	cpc	r27, r18
     17a:	e1 f7       	brne	.-8      	; 0x174 <.do_clear_bss_loop>

0000017c <__do_global_ctors>:
     17c:	10 e0       	ldi	r17, 0x00	; 0
     17e:	c1 ea       	ldi	r28, 0xA1	; 161
     180:	d0 e0       	ldi	r29, 0x00	; 0
     182:	00 e0       	ldi	r16, 0x00	; 0
     184:	06 c0       	rjmp	.+12     	; 0x192 <__do_global_ctors+0x16>
     186:	21 97       	sbiw	r28, 0x01	; 1
     188:	01 09       	sbc	r16, r1
     18a:	80 2f       	mov	r24, r16
     18c:	fe 01       	movw	r30, r28
     18e:	0e 94 08 0c 	call	0x1810	; 0x1810 <__tablejump2__>
     192:	c0 3a       	cpi	r28, 0xA0	; 160
     194:	d1 07       	cpc	r29, r17
     196:	80 e0       	ldi	r24, 0x00	; 0
     198:	08 07       	cpc	r16, r24
     19a:	a9 f7       	brne	.-22     	; 0x186 <__do_global_ctors+0xa>
     19c:	19 d1       	rcall	.+562    	; 0x3d0 <main>
     19e:	0c 94 24 0c 	jmp	0x1848	; 0x1848 <_exit>

000001a2 <__bad_interrupt>:
     1a2:	2e cf       	rjmp	.-420    	; 0x0 <__vectors>

000001a4 <_ZN5LightC1Ev>:
*/


#include "Light.h"

Light::Light()
     1a4:	08 95       	ret

000001a6 <_ZN5Light7initPWMEv>:
{}

void Light::initPWM()
{
	//Initierer timer 1 til PWM phase correct 10-bit (TOP = 1023)
	DDRL |= 1<<3;  //Port E er udgang (OCR3A ligger på PB5)
     1a6:	ea e0       	ldi	r30, 0x0A	; 10
     1a8:	f1 e0       	ldi	r31, 0x01	; 1
     1aa:	80 81       	ld	r24, Z
     1ac:	88 60       	ori	r24, 0x08	; 8
     1ae:	80 83       	st	Z, r24
	PORTL &= ~(1<<3);
     1b0:	eb e0       	ldi	r30, 0x0B	; 11
     1b2:	f1 e0       	ldi	r31, 0x01	; 1
     1b4:	80 81       	ld	r24, Z
     1b6:	87 7f       	andi	r24, 0xF7	; 247
     1b8:	80 83       	st	Z, r24
	DDRF |= 0b00000011;
     1ba:	80 b3       	in	r24, 0x10	; 16
     1bc:	83 60       	ori	r24, 0x03	; 3
     1be:	80 bb       	out	0x10, r24	; 16
	PORTF &= 0b11111100;
     1c0:	81 b3       	in	r24, 0x11	; 17
     1c2:	8c 7f       	andi	r24, 0xFC	; 252
     1c4:	81 bb       	out	0x11, r24	; 17
	
	TCCR5A |= 0b10000011;
     1c6:	e0 e2       	ldi	r30, 0x20	; 32
     1c8:	f1 e0       	ldi	r31, 0x01	; 1
     1ca:	80 81       	ld	r24, Z
     1cc:	83 68       	ori	r24, 0x83	; 131
     1ce:	80 83       	st	Z, r24
	TCCR5B |= 0b00000011;
     1d0:	e1 e2       	ldi	r30, 0x21	; 33
     1d2:	f1 e0       	ldi	r31, 0x01	; 1
     1d4:	80 81       	ld	r24, Z
     1d6:	83 60       	ori	r24, 0x03	; 3
     1d8:	80 83       	st	Z, r24
	OCR5A = 205;  //default svagt baglys (20% duty-cycle)
     1da:	8d ec       	ldi	r24, 0xCD	; 205
     1dc:	90 e0       	ldi	r25, 0x00	; 0
     1de:	90 93 29 01 	sts	0x0129, r25	; 0x800129 <__TEXT_REGION_LENGTH__+0x700129>
     1e2:	80 93 28 01 	sts	0x0128, r24	; 0x800128 <__TEXT_REGION_LENGTH__+0x700128>
     1e6:	08 95       	ret

000001e8 <_ZN5Light9lysStyrkeEc>:
}

void Light::lysStyrke(char styrke)
{
	switch(styrke)
     1e8:	61 30       	cpi	r22, 0x01	; 1
     1ea:	39 f0       	breq	.+14     	; 0x1fa <_ZN5Light9lysStyrkeEc+0x12>
     1ec:	62 30       	cpi	r22, 0x02	; 2
     1ee:	61 f0       	breq	.+24     	; 0x208 <_ZN5Light9lysStyrkeEc+0x20>
	{
		default:
		case 0: OCR5A = 0;
     1f0:	10 92 29 01 	sts	0x0129, r1	; 0x800129 <__TEXT_REGION_LENGTH__+0x700129>
     1f4:	10 92 28 01 	sts	0x0128, r1	; 0x800128 <__TEXT_REGION_LENGTH__+0x700128>
		break;
     1f8:	08 95       	ret
		
		case 1: OCR5A = 205;
     1fa:	8d ec       	ldi	r24, 0xCD	; 205
     1fc:	90 e0       	ldi	r25, 0x00	; 0
     1fe:	90 93 29 01 	sts	0x0129, r25	; 0x800129 <__TEXT_REGION_LENGTH__+0x700129>
     202:	80 93 28 01 	sts	0x0128, r24	; 0x800128 <__TEXT_REGION_LENGTH__+0x700128>
		break;
     206:	08 95       	ret
		
		case 2: OCR5A = 1023;
     208:	8f ef       	ldi	r24, 0xFF	; 255
     20a:	93 e0       	ldi	r25, 0x03	; 3
     20c:	90 93 29 01 	sts	0x0129, r25	; 0x800129 <__TEXT_REGION_LENGTH__+0x700129>
     210:	80 93 28 01 	sts	0x0128, r24	; 0x800128 <__TEXT_REGION_LENGTH__+0x700128>
     214:	08 95       	ret

00000216 <_ZN5Light6forLysEc>:
	}
}

void Light::forLys(char strength)
{
	switch(strength)
     216:	66 23       	and	r22, r22
     218:	19 f0       	breq	.+6      	; 0x220 <_ZN5Light6forLysEc+0xa>
     21a:	61 30       	cpi	r22, 0x01	; 1
     21c:	29 f0       	breq	.+10     	; 0x228 <_ZN5Light6forLysEc+0x12>
     21e:	08 95       	ret
	{
		case 0:	PORTF &= 0b11111100;
     220:	81 b3       	in	r24, 0x11	; 17
     222:	8c 7f       	andi	r24, 0xFC	; 252
     224:	81 bb       	out	0x11, r24	; 17
				break;
     226:	08 95       	ret
			
		case 1:	PORTF |= 0b00000011;
     228:	81 b3       	in	r24, 0x11	; 17
     22a:	83 60       	ori	r24, 0x03	; 3
     22c:	81 bb       	out	0x11, r24	; 17
     22e:	08 95       	ret

00000230 <__vector_1>:
Light light;
unsigned int checkpoint = 0;


ISR (INT0_vect)
{
     230:	1f 92       	push	r1
     232:	0f 92       	push	r0
     234:	0f b6       	in	r0, 0x3f	; 63
     236:	0f 92       	push	r0
     238:	11 24       	eor	r1, r1
     23a:	0b b6       	in	r0, 0x3b	; 59
     23c:	0f 92       	push	r0
     23e:	2f 93       	push	r18
     240:	3f 93       	push	r19
     242:	4f 93       	push	r20
     244:	5f 93       	push	r21
     246:	6f 93       	push	r22
     248:	7f 93       	push	r23
     24a:	8f 93       	push	r24
     24c:	9f 93       	push	r25
     24e:	af 93       	push	r26
     250:	bf 93       	push	r27
     252:	ef 93       	push	r30
     254:	ff 93       	push	r31
	sensor.disableInterrupt0();
     256:	83 e4       	ldi	r24, 0x43	; 67
     258:	92 e0       	ldi	r25, 0x02	; 2
     25a:	29 d7       	rcall	.+3666   	; 0x10ae <_ZN6Sensor17disableInterrupt0Ev>
	sensor.enableTimer3();
     25c:	83 e4       	ldi	r24, 0x43	; 67
     25e:	92 e0       	ldi	r25, 0x02	; 2
     260:	31 d7       	rcall	.+3682   	; 0x10c4 <_ZN6Sensor12enableTimer3Ev>
	
	checkpoint++;
     262:	80 91 40 02 	lds	r24, 0x0240	; 0x800240 <__data_end>
     266:	90 91 41 02 	lds	r25, 0x0241	; 0x800241 <__data_end+0x1>
     26a:	01 96       	adiw	r24, 0x01	; 1
     26c:	90 93 41 02 	sts	0x0241, r25	; 0x800241 <__data_end+0x1>
     270:	80 93 40 02 	sts	0x0240, r24	; 0x800240 <__data_end>
	switch(checkpoint)
     274:	87 30       	cpi	r24, 0x07	; 7
     276:	91 05       	cpc	r25, r1
     278:	41 f0       	breq	.+16     	; 0x28a <__vector_1+0x5a>
     27a:	18 f0       	brcs	.+6      	; 0x282 <__vector_1+0x52>
     27c:	09 97       	sbiw	r24, 0x09	; 9
     27e:	03 97       	sbiw	r24, 0x03	; 3
     280:	20 f0       	brcs	.+8      	; 0x28a <__vector_1+0x5a>
	{
		case 11:
		case 7:
		case 9: 
		case 10: break;
		default:sound.playSound(1);
     282:	61 e0       	ldi	r22, 0x01	; 1
     284:	84 e4       	ldi	r24, 0x44	; 68
     286:	92 e0       	ldi	r25, 0x02	; 2
     288:	fe d7       	rcall	.+4092   	; 0x1286 <_ZN5Sound9playSoundEc>
	}
	
	PORTB = checkpoint;
     28a:	80 91 40 02 	lds	r24, 0x0240	; 0x800240 <__data_end>
     28e:	85 b9       	out	0x05, r24	; 5
	switch(checkpoint + 1)
     290:	e0 91 40 02 	lds	r30, 0x0240	; 0x800240 <__data_end>
     294:	f0 91 41 02 	lds	r31, 0x0241	; 0x800241 <__data_end+0x1>
     298:	31 97       	sbiw	r30, 0x01	; 1
     29a:	eb 30       	cpi	r30, 0x0B	; 11
     29c:	f1 05       	cpc	r31, r1
     29e:	08 f0       	brcs	.+2      	; 0x2a2 <__vector_1+0x72>
     2a0:	51 c0       	rjmp	.+162    	; 0x344 <__vector_1+0x114>
     2a2:	88 27       	eor	r24, r24
     2a4:	ee 58       	subi	r30, 0x8E	; 142
     2a6:	ff 4f       	sbci	r31, 0xFF	; 255
     2a8:	8f 4f       	sbci	r24, 0xFF	; 255
     2aa:	0c 94 08 0c 	jmp	0x1810	; 0x1810 <__tablejump2__>
	{
		case 2: 
		case 3: motor.setAcc(700.0);
     2ae:	40 e0       	ldi	r20, 0x00	; 0
     2b0:	50 e0       	ldi	r21, 0x00	; 0
     2b2:	6f e2       	ldi	r22, 0x2F	; 47
     2b4:	74 e4       	ldi	r23, 0x44	; 68
     2b6:	85 e4       	ldi	r24, 0x45	; 69
     2b8:	92 e0       	ldi	r25, 0x02	; 2
     2ba:	ab d3       	rcall	.+1878   	; 0xa12 <_ZN5Motor6setAccEf>
				motor.newSpeed(100);
     2bc:	64 e6       	ldi	r22, 0x64	; 100
     2be:	70 e0       	ldi	r23, 0x00	; 0
     2c0:	85 e4       	ldi	r24, 0x45	; 69
     2c2:	92 e0       	ldi	r25, 0x02	; 2
     2c4:	52 d1       	rcall	.+676    	; 0x56a <_ZN5Motor8newSpeedEi>
		break;
     2c6:	43 c0       	rjmp	.+134    	; 0x34e <__vector_1+0x11e>
		
		case 4: motor.setAcc(5000.0);
     2c8:	40 e0       	ldi	r20, 0x00	; 0
     2ca:	50 e4       	ldi	r21, 0x40	; 64
     2cc:	6c e9       	ldi	r22, 0x9C	; 156
     2ce:	75 e4       	ldi	r23, 0x45	; 69
     2d0:	85 e4       	ldi	r24, 0x45	; 69
     2d2:	92 e0       	ldi	r25, 0x02	; 2
     2d4:	9e d3       	rcall	.+1852   	; 0xa12 <_ZN5Motor6setAccEf>
				motor.newSpeed(20); // På bakken
     2d6:	64 e1       	ldi	r22, 0x14	; 20
     2d8:	70 e0       	ldi	r23, 0x00	; 0
     2da:	85 e4       	ldi	r24, 0x45	; 69
     2dc:	92 e0       	ldi	r25, 0x02	; 2
     2de:	45 d1       	rcall	.+650    	; 0x56a <_ZN5Motor8newSpeedEi>
     2e0:	36 c0       	rjmp	.+108    	; 0x34e <__vector_1+0x11e>
		break;
     2e2:	40 e0       	ldi	r20, 0x00	; 0
		
		case 5:
		case 6: motor.setAcc(10000.0);
     2e4:	50 e4       	ldi	r21, 0x40	; 64
     2e6:	6c e1       	ldi	r22, 0x1C	; 28
     2e8:	76 e4       	ldi	r23, 0x46	; 70
     2ea:	85 e4       	ldi	r24, 0x45	; 69
     2ec:	92 e0       	ldi	r25, 0x02	; 2
     2ee:	91 d3       	rcall	.+1826   	; 0xa12 <_ZN5Motor6setAccEf>
				motor.newSpeed(100);
     2f0:	64 e6       	ldi	r22, 0x64	; 100
     2f2:	70 e0       	ldi	r23, 0x00	; 0
     2f4:	85 e4       	ldi	r24, 0x45	; 69
     2f6:	92 e0       	ldi	r25, 0x02	; 2
     2f8:	38 d1       	rcall	.+624    	; 0x56a <_ZN5Motor8newSpeedEi>
		break;
     2fa:	29 c0       	rjmp	.+82     	; 0x34e <__vector_1+0x11e>
		
		case 7: // Bak tilbage
		case 8: motor.setAcc(700.0);
     2fc:	40 e0       	ldi	r20, 0x00	; 0
     2fe:	50 e0       	ldi	r21, 0x00	; 0
     300:	6f e2       	ldi	r22, 0x2F	; 47
     302:	74 e4       	ldi	r23, 0x44	; 68
     304:	85 e4       	ldi	r24, 0x45	; 69
     306:	92 e0       	ldi	r25, 0x02	; 2
     308:	84 d3       	rcall	.+1800   	; 0xa12 <_ZN5Motor6setAccEf>
				motor.newSpeed(-100);
     30a:	6c e9       	ldi	r22, 0x9C	; 156
     30c:	7f ef       	ldi	r23, 0xFF	; 255
     30e:	85 e4       	ldi	r24, 0x45	; 69
     310:	92 e0       	ldi	r25, 0x02	; 2
     312:	2b d1       	rcall	.+598    	; 0x56a <_ZN5Motor8newSpeedEi>
		break;
     314:	1c c0       	rjmp	.+56     	; 0x34e <__vector_1+0x11e>
		
		case 9: // Kør fremad
		case 10:
		case 11: motor.newSpeed(100);
     316:	64 e6       	ldi	r22, 0x64	; 100
     318:	70 e0       	ldi	r23, 0x00	; 0
     31a:	85 e4       	ldi	r24, 0x45	; 69
     31c:	92 e0       	ldi	r25, 0x02	; 2
     31e:	25 d1       	rcall	.+586    	; 0x56a <_ZN5Motor8newSpeedEi>
		break;
     320:	16 c0       	rjmp	.+44     	; 0x34e <__vector_1+0x11e>
		
		case 12: motor.setAcc(5000.0);
     322:	40 e0       	ldi	r20, 0x00	; 0
     324:	50 e4       	ldi	r21, 0x40	; 64
     326:	6c e9       	ldi	r22, 0x9C	; 156
     328:	75 e4       	ldi	r23, 0x45	; 69
     32a:	85 e4       	ldi	r24, 0x45	; 69
     32c:	92 e0       	ldi	r25, 0x02	; 2
				 motor.newSpeed(0);
     32e:	71 d3       	rcall	.+1762   	; 0xa12 <_ZN5Motor6setAccEf>
     330:	60 e0       	ldi	r22, 0x00	; 0
     332:	70 e0       	ldi	r23, 0x00	; 0
     334:	85 e4       	ldi	r24, 0x45	; 69
     336:	92 e0       	ldi	r25, 0x02	; 2
				 sound.playSound(2);
     338:	18 d1       	rcall	.+560    	; 0x56a <_ZN5Motor8newSpeedEi>
     33a:	62 e0       	ldi	r22, 0x02	; 2
     33c:	84 e4       	ldi	r24, 0x44	; 68
     33e:	92 e0       	ldi	r25, 0x02	; 2
     340:	a2 d7       	rcall	.+3908   	; 0x1286 <_ZN5Sound9playSoundEc>
				 break;
     342:	05 c0       	rjmp	.+10     	; 0x34e <__vector_1+0x11e>
		
		default:motor.newSpeed(0);
     344:	60 e0       	ldi	r22, 0x00	; 0
     346:	70 e0       	ldi	r23, 0x00	; 0
     348:	85 e4       	ldi	r24, 0x45	; 69
     34a:	92 e0       	ldi	r25, 0x02	; 2
     34c:	0e d1       	rcall	.+540    	; 0x56a <_ZN5Motor8newSpeedEi>
     34e:	ff 91       	pop	r31
		break;
	}
}
     350:	ef 91       	pop	r30
     352:	bf 91       	pop	r27
     354:	af 91       	pop	r26
     356:	9f 91       	pop	r25
     358:	8f 91       	pop	r24
     35a:	7f 91       	pop	r23
     35c:	6f 91       	pop	r22
     35e:	5f 91       	pop	r21
     360:	4f 91       	pop	r20
     362:	3f 91       	pop	r19
     364:	2f 91       	pop	r18
     366:	0f 90       	pop	r0
     368:	0b be       	out	0x3b, r0	; 59
     36a:	0f 90       	pop	r0
     36c:	0f be       	out	0x3f, r0	; 63
     36e:	0f 90       	pop	r0
     370:	1f 90       	pop	r1
     372:	18 95       	reti

00000374 <__vector_32>:
     374:	1f 92       	push	r1

ISR (TIMER3_COMPA_vect)
{
     376:	0f 92       	push	r0
     378:	0f b6       	in	r0, 0x3f	; 63
     37a:	0f 92       	push	r0
     37c:	11 24       	eor	r1, r1
     37e:	0b b6       	in	r0, 0x3b	; 59
     380:	0f 92       	push	r0
     382:	2f 93       	push	r18
     384:	3f 93       	push	r19
     386:	4f 93       	push	r20
     388:	5f 93       	push	r21
     38a:	6f 93       	push	r22
     38c:	7f 93       	push	r23
     38e:	8f 93       	push	r24
     390:	9f 93       	push	r25
     392:	af 93       	push	r26
     394:	bf 93       	push	r27
     396:	ef 93       	push	r30
     398:	ff 93       	push	r31
	EIFR = 0xFF;
     39a:	8f ef       	ldi	r24, 0xFF	; 255
     39c:	8c bb       	out	0x1c, r24	; 28
	sensor.disableTimer3();
     39e:	83 e4       	ldi	r24, 0x43	; 67
     3a0:	92 e0       	ldi	r25, 0x02	; 2
     3a2:	87 d6       	rcall	.+3342   	; 0x10b2 <_ZN6Sensor13disableTimer3Ev>
	sensor.enableInterrupt0();
     3a4:	83 e4       	ldi	r24, 0x43	; 67
     3a6:	92 e0       	ldi	r25, 0x02	; 2
     3a8:	8a d6       	rcall	.+3348   	; 0x10be <_ZN6Sensor16enableInterrupt0Ev>
}
     3aa:	ff 91       	pop	r31
     3ac:	ef 91       	pop	r30
     3ae:	bf 91       	pop	r27
     3b0:	af 91       	pop	r26
     3b2:	9f 91       	pop	r25
     3b4:	8f 91       	pop	r24
     3b6:	7f 91       	pop	r23
     3b8:	6f 91       	pop	r22
     3ba:	5f 91       	pop	r21
     3bc:	4f 91       	pop	r20
     3be:	3f 91       	pop	r19
     3c0:	2f 91       	pop	r18
     3c2:	0f 90       	pop	r0
     3c4:	0b be       	out	0x3b, r0	; 59
     3c6:	0f 90       	pop	r0
     3c8:	0f be       	out	0x3f, r0	; 63
     3ca:	0f 90       	pop	r0
     3cc:	1f 90       	pop	r1
     3ce:	18 95       	reti

000003d0 <main>:


int main(void)
{
	sei();
     3d0:	78 94       	sei
	sensor.initInterrupt0();
     3d2:	83 e4       	ldi	r24, 0x43	; 67
     3d4:	92 e0       	ldi	r25, 0x02	; 2
     3d6:	4f d6       	rcall	.+3230   	; 0x1076 <_ZN6Sensor14initInterrupt0Ev>
	sensor.initTimer3();
     3d8:	83 e4       	ldi	r24, 0x43	; 67
     3da:	92 e0       	ldi	r25, 0x02	; 2
     3dc:	55 d6       	rcall	.+3242   	; 0x1088 <_ZN6Sensor10initTimer3Ev>
	sensor.disableTimer3();
     3de:	83 e4       	ldi	r24, 0x43	; 67
     3e0:	92 e0       	ldi	r25, 0x02	; 2
     3e2:	67 d6       	rcall	.+3278   	; 0x10b2 <_ZN6Sensor13disableTimer3Ev>
	
	sound.InitUART0(9600, 8, 'N', 0);
     3e4:	e1 2c       	mov	r14, r1
     3e6:	0e e4       	ldi	r16, 0x4E	; 78
     3e8:	28 e0       	ldi	r18, 0x08	; 8
     3ea:	40 e8       	ldi	r20, 0x80	; 128
     3ec:	55 e2       	ldi	r21, 0x25	; 37
     3ee:	60 e0       	ldi	r22, 0x00	; 0
     3f0:	70 e0       	ldi	r23, 0x00	; 0
     3f2:	84 e4       	ldi	r24, 0x44	; 68
     3f4:	92 e0       	ldi	r25, 0x02	; 2
	sound.InitSOMO();
     3f6:	6e d6       	rcall	.+3292   	; 0x10d4 <_ZN5Sound9InitUART0Emhch>
     3f8:	84 e4       	ldi	r24, 0x44	; 68
     3fa:	92 e0       	ldi	r25, 0x02	; 2
     3fc:	ff d6       	rcall	.+3582   	; 0x11fc <_ZN5Sound8InitSOMOEv>
	
	DDRB |= 0b11111110;
     3fe:	84 b1       	in	r24, 0x04	; 4
     400:	8e 6f       	ori	r24, 0xFE	; 254
     402:	84 b9       	out	0x04, r24	; 4
	PORTB = 0b00000000;
     404:	15 b8       	out	0x05, r1	; 5
	while ((~PINB & 0b00000001) == 1)
     406:	18 9b       	sbis	0x03, 0	; 3
	{}
	
	sound.playSound(0);
     408:	fe cf       	rjmp	.-4      	; 0x406 <__LOCK_REGION_LENGTH__+0x6>
     40a:	60 e0       	ldi	r22, 0x00	; 0
     40c:	84 e4       	ldi	r24, 0x44	; 68
     40e:	92 e0       	ldi	r25, 0x02	; 2
     410:	3a d7       	rcall	.+3700   	; 0x1286 <_ZN5Sound9playSoundEc>
	#else
		//round up by default
		__ticks_dc = (uint32_t)(ceil(fabs(__tmp)));
	#endif

	__builtin_avr_delay_cycles(__ticks_dc);
     412:	2f ef       	ldi	r18, 0xFF	; 255
     414:	8b e7       	ldi	r24, 0x7B	; 123
     416:	92 e9       	ldi	r25, 0x92	; 146
     418:	21 50       	subi	r18, 0x01	; 1
     41a:	80 40       	sbci	r24, 0x00	; 0
     41c:	90 40       	sbci	r25, 0x00	; 0
     41e:	e1 f7       	brne	.-8      	; 0x418 <__LOCK_REGION_LENGTH__+0x18>
     420:	00 c0       	rjmp	.+0      	; 0x422 <__LOCK_REGION_LENGTH__+0x22>
	
	_delay_ms(3000);
	motor.newSpeed(100);
     422:	00 00       	nop
     424:	64 e6       	ldi	r22, 0x64	; 100
     426:	70 e0       	ldi	r23, 0x00	; 0
     428:	85 e4       	ldi	r24, 0x45	; 69
     42a:	92 e0       	ldi	r25, 0x02	; 2
	
	DDRB = 0xFF;
     42c:	9e d0       	rcall	.+316    	; 0x56a <_ZN5Motor8newSpeedEi>
     42e:	8f ef       	ldi	r24, 0xFF	; 255
	
    while (1) 
    {
		motor.tick();
     430:	84 b9       	out	0x04, r24	; 4
     432:	85 e4       	ldi	r24, 0x45	; 69
     434:	92 e0       	ldi	r25, 0x02	; 2
     436:	5d d3       	rcall	.+1722   	; 0xaf2 <_ZN5Motor4tickEv>
     438:	fc cf       	rjmp	.-8      	; 0x432 <__LOCK_REGION_LENGTH__+0x32>

0000043a <_GLOBAL__sub_I_motor>:
    }
}
     43a:	cf 92       	push	r12
     43c:	df 92       	push	r13
     43e:	ef 92       	push	r14
     440:	ff 92       	push	r15
     442:	0f 93       	push	r16
#include "Motor.h"
#include "Sensor.h"
#include "Sound.h"


Motor motor(4, 'C', 'H', 6, 700.0);
     444:	0f 2e       	mov	r0, r31
     446:	c1 2c       	mov	r12, r1
     448:	d1 2c       	mov	r13, r1
     44a:	ff e2       	ldi	r31, 0x2F	; 47
     44c:	ef 2e       	mov	r14, r31
     44e:	f4 e4       	ldi	r31, 0x44	; 68
     450:	ff 2e       	mov	r15, r31
     452:	f0 2d       	mov	r31, r0
     454:	06 e0       	ldi	r16, 0x06	; 6
     456:	28 e4       	ldi	r18, 0x48	; 72
     458:	43 e4       	ldi	r20, 0x43	; 67
     45a:	64 e0       	ldi	r22, 0x04	; 4
     45c:	85 e4       	ldi	r24, 0x45	; 69
     45e:	92 e0       	ldi	r25, 0x02	; 2
     460:	c6 d5       	rcall	.+2956   	; 0xfee <_ZN5MotorC1Eccccf>
Sound sound;
     462:	84 e4       	ldi	r24, 0x44	; 68
     464:	92 e0       	ldi	r25, 0x02	; 2
     466:	35 d6       	rcall	.+3178   	; 0x10d2 <_ZN5SoundC1Ev>
Sensor sensor;
     468:	83 e4       	ldi	r24, 0x43	; 67
     46a:	92 e0       	ldi	r25, 0x02	; 2
     46c:	03 d6       	rcall	.+3078   	; 0x1074 <_ZN6SensorC1Ev>
Light light;
     46e:	82 e4       	ldi	r24, 0x42	; 66
     470:	92 e0       	ldi	r25, 0x02	; 2
     472:	98 de       	rcall	.-720    	; 0x1a4 <_ZN5LightC1Ev>
     474:	0f 91       	pop	r16
	
    while (1) 
    {
		motor.tick();
    }
}
     476:	ff 90       	pop	r15
     478:	ef 90       	pop	r14
     47a:	df 90       	pop	r13
     47c:	cf 90       	pop	r12
     47e:	08 95       	ret

00000480 <_ZN5Motor7lerpPWMEv>:
     480:	8f 92       	push	r8
	
	light_.initPWM();
	TCCR1A = 0b00000000;
	TCCR1B = 0b00000000;
	TCNT1 = 0;
}
     482:	9f 92       	push	r9
     484:	af 92       	push	r10
     486:	bf 92       	push	r11
     488:	cf 92       	push	r12
     48a:	df 92       	push	r13
     48c:	ef 92       	push	r14
     48e:	ff 92       	push	r15
     490:	0f 93       	push	r16
     492:	1f 93       	push	r17
     494:	cf 93       	push	r28
     496:	df 93       	push	r29
     498:	ec 01       	movw	r28, r24
     49a:	0c 81       	ldd	r16, Y+4	; 0x04
     49c:	1d 81       	ldd	r17, Y+5	; 0x05
     49e:	ce 80       	ldd	r12, Y+6	; 0x06
     4a0:	df 80       	ldd	r13, Y+7	; 0x07
     4a2:	e8 84       	ldd	r14, Y+8	; 0x08
     4a4:	f9 84       	ldd	r15, Y+9	; 0x09
     4a6:	58 01       	movw	r10, r16
     4a8:	aa 24       	eor	r10, r10
     4aa:	80 e8       	ldi	r24, 0x80	; 128
     4ac:	b8 22       	and	r11, r24
     4ae:	c7 01       	movw	r24, r14
     4b0:	b6 01       	movw	r22, r12
     4b2:	0e 94 89 0a 	call	0x1512	; 0x1512 <__fixsfsi>
     4b6:	66 27       	eor	r22, r22
     4b8:	70 78       	andi	r23, 0x80	; 128
     4ba:	a6 16       	cp	r10, r22
     4bc:	b7 06       	cpc	r11, r23
     4be:	b1 f0       	breq	.+44     	; 0x4ec <_ZN5Motor7lerpPWMEv+0x6c>
     4c0:	20 e0       	ldi	r18, 0x00	; 0
     4c2:	30 e0       	ldi	r19, 0x00	; 0
     4c4:	40 ef       	ldi	r20, 0xF0	; 240
     4c6:	51 e4       	ldi	r21, 0x41	; 65
     4c8:	c7 01       	movw	r24, r14
     4ca:	b6 01       	movw	r22, r12
     4cc:	b6 d7       	rcall	.+3948   	; 0x143a <__cmpsf2>
     4ce:	88 23       	and	r24, r24
     4d0:	54 f4       	brge	.+20     	; 0x4e6 <_ZN5Motor7lerpPWMEv+0x66>
     4d2:	20 e0       	ldi	r18, 0x00	; 0
     4d4:	30 e0       	ldi	r19, 0x00	; 0
     4d6:	40 ef       	ldi	r20, 0xF0	; 240
     4d8:	51 ec       	ldi	r21, 0xC1	; 193
     4da:	c7 01       	movw	r24, r14
     4dc:	b6 01       	movw	r22, r12
     4de:	0e 94 6c 0b 	call	0x16d8	; 0x16d8 <__gesf2>
     4e2:	18 16       	cp	r1, r24
     4e4:	1c f0       	brlt	.+6      	; 0x4ec <_ZN5Motor7lerpPWMEv+0x6c>
     4e6:	01 15       	cp	r16, r1
     4e8:	11 05       	cpc	r17, r1
     4ea:	b1 f0       	breq	.+44     	; 0x518 <_ZN5Motor7lerpPWMEv+0x98>
     4ec:	b8 01       	movw	r22, r16
     4ee:	11 0f       	add	r17, r17
     4f0:	88 0b       	sbc	r24, r24
     4f2:	99 0b       	sbc	r25, r25
     4f4:	0e 94 bc 0a 	call	0x1578	; 0x1578 <__floatsisf>
     4f8:	a7 01       	movw	r20, r14
     4fa:	96 01       	movw	r18, r12
     4fc:	39 d7       	rcall	.+3698   	; 0x1370 <__subsf3>
     4fe:	28 81       	ld	r18, Y
     500:	39 81       	ldd	r19, Y+1	; 0x01
     502:	4a 81       	ldd	r20, Y+2	; 0x02
     504:	5b 81       	ldd	r21, Y+3	; 0x03
     506:	9d d7       	rcall	.+3898   	; 0x1442 <__divsf3>
     508:	a7 01       	movw	r20, r14
     50a:	96 01       	movw	r18, r12
     50c:	32 d7       	rcall	.+3684   	; 0x1372 <__addsf3>
     50e:	6e 83       	std	Y+6, r22	; 0x06
     510:	7f 83       	std	Y+7, r23	; 0x07
     512:	88 87       	std	Y+8, r24	; 0x08
     514:	99 87       	std	Y+9, r25	; 0x09
     516:	1c c0       	rjmp	.+56     	; 0x550 <_ZN5Motor7lerpPWMEv+0xd0>
     518:	46 01       	movw	r8, r12
     51a:	57 01       	movw	r10, r14
     51c:	b7 fa       	bst	r11, 7
     51e:	b0 94       	com	r11
     520:	b7 f8       	bld	r11, 7
     522:	b0 94       	com	r11
     524:	20 e0       	ldi	r18, 0x00	; 0
     526:	30 e0       	ldi	r19, 0x00	; 0
     528:	40 e8       	ldi	r20, 0x80	; 128
     52a:	5e e3       	ldi	r21, 0x3E	; 62
     52c:	68 81       	ld	r22, Y
     52e:	79 81       	ldd	r23, Y+1	; 0x01
     530:	8a 81       	ldd	r24, Y+2	; 0x02
     532:	9b 81       	ldd	r25, Y+3	; 0x03
     534:	0e 94 70 0b 	call	0x16e0	; 0x16e0 <__mulsf3>
     538:	9b 01       	movw	r18, r22
     53a:	ac 01       	movw	r20, r24
     53c:	c5 01       	movw	r24, r10
     53e:	b4 01       	movw	r22, r8
     540:	80 d7       	rcall	.+3840   	; 0x1442 <__divsf3>
     542:	a7 01       	movw	r20, r14
     544:	96 01       	movw	r18, r12
     546:	15 d7       	rcall	.+3626   	; 0x1372 <__addsf3>
     548:	6e 83       	std	Y+6, r22	; 0x06
     54a:	7f 83       	std	Y+7, r23	; 0x07
     54c:	88 87       	std	Y+8, r24	; 0x08
     54e:	99 87       	std	Y+9, r25	; 0x09
     550:	df 91       	pop	r29
     552:	cf 91       	pop	r28
     554:	1f 91       	pop	r17
     556:	0f 91       	pop	r16
     558:	ff 90       	pop	r15
     55a:	ef 90       	pop	r14
     55c:	df 90       	pop	r13
     55e:	cf 90       	pop	r12
     560:	bf 90       	pop	r11
     562:	af 90       	pop	r10
     564:	9f 90       	pop	r9
     566:	8f 90       	pop	r8
     568:	08 95       	ret

0000056a <_ZN5Motor8newSpeedEi>:
     56a:	2f 92       	push	r2
     56c:	3f 92       	push	r3
     56e:	4f 92       	push	r4
     570:	5f 92       	push	r5
     572:	6f 92       	push	r6
     574:	7f 92       	push	r7
     576:	8f 92       	push	r8
     578:	9f 92       	push	r9
     57a:	af 92       	push	r10
     57c:	bf 92       	push	r11
     57e:	cf 92       	push	r12
     580:	df 92       	push	r13
     582:	ef 92       	push	r14
     584:	ff 92       	push	r15
     586:	0f 93       	push	r16
     588:	1f 93       	push	r17
     58a:	cf 93       	push	r28
     58c:	df 93       	push	r29
     58e:	7c 01       	movw	r14, r24
     590:	eb 01       	movw	r28, r22
     592:	2f ef       	ldi	r18, 0xFF	; 255
     594:	26 9f       	mul	r18, r22
     596:	c0 01       	movw	r24, r0
     598:	27 9f       	mul	r18, r23
     59a:	90 0d       	add	r25, r0
     59c:	11 24       	eor	r1, r1
     59e:	64 e6       	ldi	r22, 0x64	; 100
     5a0:	70 e0       	ldi	r23, 0x00	; 0
     5a2:	0e 94 d3 0b 	call	0x17a6	; 0x17a6 <__divmodhi4>
     5a6:	8b 01       	movw	r16, r22
     5a8:	6b 01       	movw	r12, r22
     5aa:	16 16       	cp	r1, r22
     5ac:	17 06       	cpc	r1, r23
     5ae:	24 f0       	brlt	.+8      	; 0x5b8 <_ZN5Motor8newSpeedEi+0x4e>
     5b0:	22 24       	eor	r2, r2
     5b2:	2a 94       	dec	r2
     5b4:	32 2c       	mov	r3, r2
     5b6:	03 c0       	rjmp	.+6      	; 0x5be <_ZN5Motor8newSpeedEi+0x54>
     5b8:	22 24       	eor	r2, r2
     5ba:	23 94       	inc	r2
     5bc:	31 2c       	mov	r3, r1
     5be:	f7 01       	movw	r30, r14
     5c0:	86 80       	ldd	r8, Z+6	; 0x06
     5c2:	97 80       	ldd	r9, Z+7	; 0x07
     5c4:	a0 84       	ldd	r10, Z+8	; 0x08
     5c6:	b1 84       	ldd	r11, Z+9	; 0x09
     5c8:	20 e0       	ldi	r18, 0x00	; 0
     5ca:	30 e0       	ldi	r19, 0x00	; 0
     5cc:	a9 01       	movw	r20, r18
     5ce:	c5 01       	movw	r24, r10
     5d0:	b4 01       	movw	r22, r8
     5d2:	0e 94 6c 0b 	call	0x16d8	; 0x16d8 <__gesf2>
     5d6:	18 16       	cp	r1, r24
     5d8:	0c f4       	brge	.+2      	; 0x5dc <_ZN5Motor8newSpeedEi+0x72>
     5da:	48 c0       	rjmp	.+144    	; 0x66c <_ZN5Motor8newSpeedEi+0x102>
     5dc:	cc 59       	subi	r28, 0x9C	; 156
     5de:	df 4f       	sbci	r29, 0xFF	; 255
     5e0:	c9 3c       	cpi	r28, 0xC9	; 201
     5e2:	d1 05       	cpc	r29, r1
     5e4:	70 f5       	brcc	.+92     	; 0x642 <_ZN5Motor8newSpeedEi+0xd8>
     5e6:	b8 01       	movw	r22, r16
     5e8:	dd 20       	and	r13, r13
     5ea:	24 f4       	brge	.+8      	; 0x5f4 <_ZN5Motor8newSpeedEi+0x8a>
     5ec:	66 27       	eor	r22, r22
     5ee:	77 27       	eor	r23, r23
     5f0:	60 1b       	sub	r22, r16
     5f2:	71 0b       	sbc	r23, r17
     5f4:	07 2e       	mov	r0, r23
     5f6:	00 0c       	add	r0, r0
     5f8:	88 0b       	sbc	r24, r24
     5fa:	99 0b       	sbc	r25, r25
     5fc:	bd d7       	rcall	.+3962   	; 0x1578 <__floatsisf>
     5fe:	2b 01       	movw	r4, r22
     600:	3c 01       	movw	r6, r24
     602:	20 e0       	ldi	r18, 0x00	; 0
     604:	30 e0       	ldi	r19, 0x00	; 0
     606:	a9 01       	movw	r20, r18
     608:	c5 01       	movw	r24, r10
     60a:	b4 01       	movw	r22, r8
     60c:	0e 94 6c 0b 	call	0x16d8	; 0x16d8 <__gesf2>
     610:	18 16       	cp	r1, r24
     612:	3c f0       	brlt	.+14     	; 0x622 <_ZN5Motor8newSpeedEi+0xb8>
     614:	b7 fa       	bst	r11, 7
     616:	b0 94       	com	r11
     618:	b7 f8       	bld	r11, 7
     61a:	b0 94       	com	r11
     61c:	cf ef       	ldi	r28, 0xFF	; 255
     61e:	df ef       	ldi	r29, 0xFF	; 255
     620:	02 c0       	rjmp	.+4      	; 0x626 <_ZN5Motor8newSpeedEi+0xbc>
     622:	cf ef       	ldi	r28, 0xFF	; 255
     624:	df ef       	ldi	r29, 0xFF	; 255
     626:	a3 01       	movw	r20, r6
     628:	92 01       	movw	r18, r4
     62a:	c5 01       	movw	r24, r10
     62c:	b4 01       	movw	r22, r8
     62e:	0e 94 6c 0b 	call	0x16d8	; 0x16d8 <__gesf2>
     632:	18 16       	cp	r1, r24
     634:	1c f0       	brlt	.+6      	; 0x63c <_ZN5Motor8newSpeedEi+0xd2>
     636:	2c 16       	cp	r2, r28
     638:	3d 06       	cpc	r3, r29
     63a:	19 f0       	breq	.+6      	; 0x642 <_ZN5Motor8newSpeedEi+0xd8>
     63c:	81 e0       	ldi	r24, 0x01	; 1
     63e:	f7 01       	movw	r30, r14
     640:	86 87       	std	Z+14, r24	; 0x0e
     642:	f7 01       	movw	r30, r14
     644:	15 83       	std	Z+5, r17	; 0x05
     646:	04 83       	std	Z+4, r16	; 0x04
     648:	17 c0       	rjmp	.+46     	; 0x678 <_ZN5Motor8newSpeedEi+0x10e>
     64a:	b8 01       	movw	r22, r16
     64c:	dd 20       	and	r13, r13
     64e:	24 f4       	brge	.+8      	; 0x658 <_ZN5Motor8newSpeedEi+0xee>
     650:	66 27       	eor	r22, r22
     652:	77 27       	eor	r23, r23
     654:	60 1b       	sub	r22, r16
     656:	71 0b       	sbc	r23, r17
     658:	07 2e       	mov	r0, r23
     65a:	00 0c       	add	r0, r0
     65c:	88 0b       	sbc	r24, r24
     65e:	99 0b       	sbc	r25, r25
     660:	8b d7       	rcall	.+3862   	; 0x1578 <__floatsisf>
     662:	2b 01       	movw	r4, r22
     664:	3c 01       	movw	r6, r24
     666:	c1 e0       	ldi	r28, 0x01	; 1
     668:	d0 e0       	ldi	r29, 0x00	; 0
     66a:	dd cf       	rjmp	.-70     	; 0x626 <_ZN5Motor8newSpeedEi+0xbc>
     66c:	cc 59       	subi	r28, 0x9C	; 156
     66e:	df 4f       	sbci	r29, 0xFF	; 255
     670:	c9 3c       	cpi	r28, 0xC9	; 201
     672:	d1 05       	cpc	r29, r1
     674:	50 f3       	brcs	.-44     	; 0x64a <_ZN5Motor8newSpeedEi+0xe0>
     676:	e5 cf       	rjmp	.-54     	; 0x642 <_ZN5Motor8newSpeedEi+0xd8>
     678:	df 91       	pop	r29
     67a:	cf 91       	pop	r28
     67c:	1f 91       	pop	r17
     67e:	0f 91       	pop	r16
     680:	ff 90       	pop	r15
     682:	ef 90       	pop	r14
     684:	df 90       	pop	r13
     686:	cf 90       	pop	r12
     688:	bf 90       	pop	r11
     68a:	af 90       	pop	r10
     68c:	9f 90       	pop	r9
     68e:	8f 90       	pop	r8
     690:	7f 90       	pop	r7
     692:	6f 90       	pop	r6
     694:	5f 90       	pop	r5
     696:	4f 90       	pop	r4
     698:	3f 90       	pop	r3
     69a:	2f 90       	pop	r2
     69c:	08 95       	ret

0000069e <_ZN5Motor9setSwitchEc>:
     69e:	cf 93       	push	r28
     6a0:	df 93       	push	r29
     6a2:	ec 01       	movw	r28, r24
     6a4:	61 11       	cpse	r22, r1
     6a6:	c8 c0       	rjmp	.+400    	; 0x838 <_ZN5Motor9setSwitchEc+0x19a>
     6a8:	ec 85       	ldd	r30, Y+12	; 0x0c
     6aa:	8e 2f       	mov	r24, r30
     6ac:	90 e0       	ldi	r25, 0x00	; 0
     6ae:	fc 01       	movw	r30, r24
     6b0:	e1 54       	subi	r30, 0x41	; 65
     6b2:	f1 09       	sbc	r31, r1
     6b4:	ec 30       	cpi	r30, 0x0C	; 12
     6b6:	f1 05       	cpc	r31, r1
     6b8:	08 f0       	brcs	.+2      	; 0x6bc <_ZN5Motor9setSwitchEc+0x1e>
     6ba:	58 c1       	rjmp	.+688    	; 0x96c <_ZN5Motor9setSwitchEc+0x2ce>
     6bc:	88 27       	eor	r24, r24
     6be:	e3 58       	subi	r30, 0x83	; 131
     6c0:	ff 4f       	sbci	r31, 0xFF	; 255
     6c2:	8f 4f       	sbci	r24, 0xFF	; 255
     6c4:	0c 94 08 0c 	jmp	0x1810	; 0x1810 <__tablejump2__>
     6c8:	82 b1       	in	r24, 0x02	; 2
     6ca:	21 e0       	ldi	r18, 0x01	; 1
     6cc:	30 e0       	ldi	r19, 0x00	; 0
     6ce:	0d 84       	ldd	r0, Y+13	; 0x0d
     6d0:	02 c0       	rjmp	.+4      	; 0x6d6 <_ZN5Motor9setSwitchEc+0x38>
     6d2:	22 0f       	add	r18, r18
     6d4:	33 1f       	adc	r19, r19
     6d6:	0a 94       	dec	r0
     6d8:	e2 f7       	brpl	.-8      	; 0x6d2 <_ZN5Motor9setSwitchEc+0x34>
     6da:	91 e0       	ldi	r25, 0x01	; 1
     6dc:	23 2b       	or	r18, r19
     6de:	09 f0       	breq	.+2      	; 0x6e2 <_ZN5Motor9setSwitchEc+0x44>
     6e0:	90 e0       	ldi	r25, 0x00	; 0
     6e2:	89 23       	and	r24, r25
     6e4:	82 b9       	out	0x02, r24	; 2
     6e6:	42 c1       	rjmp	.+644    	; 0x96c <_ZN5Motor9setSwitchEc+0x2ce>
     6e8:	85 b1       	in	r24, 0x05	; 5
     6ea:	21 e0       	ldi	r18, 0x01	; 1
     6ec:	30 e0       	ldi	r19, 0x00	; 0
     6ee:	0d 84       	ldd	r0, Y+13	; 0x0d
     6f0:	02 c0       	rjmp	.+4      	; 0x6f6 <_ZN5Motor9setSwitchEc+0x58>
     6f2:	22 0f       	add	r18, r18
     6f4:	33 1f       	adc	r19, r19
     6f6:	0a 94       	dec	r0
     6f8:	e2 f7       	brpl	.-8      	; 0x6f2 <_ZN5Motor9setSwitchEc+0x54>
     6fa:	91 e0       	ldi	r25, 0x01	; 1
     6fc:	23 2b       	or	r18, r19
     6fe:	09 f0       	breq	.+2      	; 0x702 <_ZN5Motor9setSwitchEc+0x64>
     700:	90 e0       	ldi	r25, 0x00	; 0
     702:	89 23       	and	r24, r25
     704:	85 b9       	out	0x05, r24	; 5
     706:	32 c1       	rjmp	.+612    	; 0x96c <_ZN5Motor9setSwitchEc+0x2ce>
     708:	88 b1       	in	r24, 0x08	; 8
     70a:	21 e0       	ldi	r18, 0x01	; 1
     70c:	30 e0       	ldi	r19, 0x00	; 0
     70e:	0d 84       	ldd	r0, Y+13	; 0x0d
     710:	02 c0       	rjmp	.+4      	; 0x716 <_ZN5Motor9setSwitchEc+0x78>
     712:	22 0f       	add	r18, r18
     714:	33 1f       	adc	r19, r19
     716:	0a 94       	dec	r0
     718:	e2 f7       	brpl	.-8      	; 0x712 <_ZN5Motor9setSwitchEc+0x74>
     71a:	91 e0       	ldi	r25, 0x01	; 1
     71c:	23 2b       	or	r18, r19
     71e:	09 f0       	breq	.+2      	; 0x722 <_ZN5Motor9setSwitchEc+0x84>
     720:	90 e0       	ldi	r25, 0x00	; 0
     722:	89 23       	and	r24, r25
     724:	88 b9       	out	0x08, r24	; 8
     726:	22 c1       	rjmp	.+580    	; 0x96c <_ZN5Motor9setSwitchEc+0x2ce>
     728:	8b b1       	in	r24, 0x0b	; 11
     72a:	21 e0       	ldi	r18, 0x01	; 1
     72c:	30 e0       	ldi	r19, 0x00	; 0
     72e:	0d 84       	ldd	r0, Y+13	; 0x0d
     730:	02 c0       	rjmp	.+4      	; 0x736 <_ZN5Motor9setSwitchEc+0x98>
     732:	22 0f       	add	r18, r18
     734:	33 1f       	adc	r19, r19
     736:	0a 94       	dec	r0
     738:	e2 f7       	brpl	.-8      	; 0x732 <_ZN5Motor9setSwitchEc+0x94>
     73a:	91 e0       	ldi	r25, 0x01	; 1
     73c:	23 2b       	or	r18, r19
     73e:	09 f0       	breq	.+2      	; 0x742 <_ZN5Motor9setSwitchEc+0xa4>
     740:	90 e0       	ldi	r25, 0x00	; 0
     742:	89 23       	and	r24, r25
     744:	8b b9       	out	0x0b, r24	; 11
     746:	12 c1       	rjmp	.+548    	; 0x96c <_ZN5Motor9setSwitchEc+0x2ce>
     748:	8e b1       	in	r24, 0x0e	; 14
     74a:	21 e0       	ldi	r18, 0x01	; 1
     74c:	30 e0       	ldi	r19, 0x00	; 0
     74e:	0d 84       	ldd	r0, Y+13	; 0x0d
     750:	02 c0       	rjmp	.+4      	; 0x756 <_ZN5Motor9setSwitchEc+0xb8>
     752:	22 0f       	add	r18, r18
     754:	33 1f       	adc	r19, r19
     756:	0a 94       	dec	r0
     758:	e2 f7       	brpl	.-8      	; 0x752 <_ZN5Motor9setSwitchEc+0xb4>
     75a:	91 e0       	ldi	r25, 0x01	; 1
     75c:	23 2b       	or	r18, r19
     75e:	09 f0       	breq	.+2      	; 0x762 <_ZN5Motor9setSwitchEc+0xc4>
     760:	90 e0       	ldi	r25, 0x00	; 0
     762:	89 23       	and	r24, r25
     764:	8e b9       	out	0x0e, r24	; 14
     766:	02 c1       	rjmp	.+516    	; 0x96c <_ZN5Motor9setSwitchEc+0x2ce>
     768:	81 b3       	in	r24, 0x11	; 17
     76a:	21 e0       	ldi	r18, 0x01	; 1
     76c:	30 e0       	ldi	r19, 0x00	; 0
     76e:	0d 84       	ldd	r0, Y+13	; 0x0d
     770:	02 c0       	rjmp	.+4      	; 0x776 <_ZN5Motor9setSwitchEc+0xd8>
     772:	22 0f       	add	r18, r18
     774:	33 1f       	adc	r19, r19
     776:	0a 94       	dec	r0
     778:	e2 f7       	brpl	.-8      	; 0x772 <_ZN5Motor9setSwitchEc+0xd4>
     77a:	91 e0       	ldi	r25, 0x01	; 1
     77c:	23 2b       	or	r18, r19
     77e:	09 f0       	breq	.+2      	; 0x782 <_ZN5Motor9setSwitchEc+0xe4>
     780:	90 e0       	ldi	r25, 0x00	; 0
     782:	89 23       	and	r24, r25
     784:	81 bb       	out	0x11, r24	; 17
     786:	f2 c0       	rjmp	.+484    	; 0x96c <_ZN5Motor9setSwitchEc+0x2ce>
     788:	84 b3       	in	r24, 0x14	; 20
     78a:	21 e0       	ldi	r18, 0x01	; 1
     78c:	30 e0       	ldi	r19, 0x00	; 0
     78e:	0d 84       	ldd	r0, Y+13	; 0x0d
     790:	02 c0       	rjmp	.+4      	; 0x796 <_ZN5Motor9setSwitchEc+0xf8>
     792:	22 0f       	add	r18, r18
     794:	33 1f       	adc	r19, r19
     796:	0a 94       	dec	r0
     798:	e2 f7       	brpl	.-8      	; 0x792 <_ZN5Motor9setSwitchEc+0xf4>
     79a:	91 e0       	ldi	r25, 0x01	; 1
     79c:	23 2b       	or	r18, r19
     79e:	09 f0       	breq	.+2      	; 0x7a2 <_ZN5Motor9setSwitchEc+0x104>
     7a0:	90 e0       	ldi	r25, 0x00	; 0
     7a2:	89 23       	and	r24, r25
     7a4:	84 bb       	out	0x14, r24	; 20
     7a6:	e2 c0       	rjmp	.+452    	; 0x96c <_ZN5Motor9setSwitchEc+0x2ce>
     7a8:	80 91 02 01 	lds	r24, 0x0102	; 0x800102 <__TEXT_REGION_LENGTH__+0x700102>
     7ac:	21 e0       	ldi	r18, 0x01	; 1
     7ae:	30 e0       	ldi	r19, 0x00	; 0
     7b0:	0d 84       	ldd	r0, Y+13	; 0x0d
     7b2:	02 c0       	rjmp	.+4      	; 0x7b8 <_ZN5Motor9setSwitchEc+0x11a>
     7b4:	22 0f       	add	r18, r18
     7b6:	33 1f       	adc	r19, r19
     7b8:	0a 94       	dec	r0
     7ba:	e2 f7       	brpl	.-8      	; 0x7b4 <_ZN5Motor9setSwitchEc+0x116>
     7bc:	91 e0       	ldi	r25, 0x01	; 1
     7be:	23 2b       	or	r18, r19
     7c0:	09 f0       	breq	.+2      	; 0x7c4 <_ZN5Motor9setSwitchEc+0x126>
     7c2:	90 e0       	ldi	r25, 0x00	; 0
     7c4:	89 23       	and	r24, r25
     7c6:	80 93 02 01 	sts	0x0102, r24	; 0x800102 <__TEXT_REGION_LENGTH__+0x700102>
     7ca:	d0 c0       	rjmp	.+416    	; 0x96c <_ZN5Motor9setSwitchEc+0x2ce>
     7cc:	80 91 05 01 	lds	r24, 0x0105	; 0x800105 <__TEXT_REGION_LENGTH__+0x700105>
     7d0:	21 e0       	ldi	r18, 0x01	; 1
     7d2:	30 e0       	ldi	r19, 0x00	; 0
     7d4:	0d 84       	ldd	r0, Y+13	; 0x0d
     7d6:	02 c0       	rjmp	.+4      	; 0x7dc <_ZN5Motor9setSwitchEc+0x13e>
     7d8:	22 0f       	add	r18, r18
     7da:	33 1f       	adc	r19, r19
     7dc:	0a 94       	dec	r0
     7de:	e2 f7       	brpl	.-8      	; 0x7d8 <_ZN5Motor9setSwitchEc+0x13a>
     7e0:	91 e0       	ldi	r25, 0x01	; 1
     7e2:	23 2b       	or	r18, r19
     7e4:	09 f0       	breq	.+2      	; 0x7e8 <_ZN5Motor9setSwitchEc+0x14a>
     7e6:	90 e0       	ldi	r25, 0x00	; 0
     7e8:	89 23       	and	r24, r25
     7ea:	80 93 05 01 	sts	0x0105, r24	; 0x800105 <__TEXT_REGION_LENGTH__+0x700105>
     7ee:	be c0       	rjmp	.+380    	; 0x96c <_ZN5Motor9setSwitchEc+0x2ce>
     7f0:	80 91 08 01 	lds	r24, 0x0108	; 0x800108 <__TEXT_REGION_LENGTH__+0x700108>
     7f4:	21 e0       	ldi	r18, 0x01	; 1
     7f6:	30 e0       	ldi	r19, 0x00	; 0
     7f8:	0d 84       	ldd	r0, Y+13	; 0x0d
     7fa:	02 c0       	rjmp	.+4      	; 0x800 <_ZN5Motor9setSwitchEc+0x162>
     7fc:	22 0f       	add	r18, r18
     7fe:	33 1f       	adc	r19, r19
     800:	0a 94       	dec	r0
     802:	e2 f7       	brpl	.-8      	; 0x7fc <_ZN5Motor9setSwitchEc+0x15e>
     804:	91 e0       	ldi	r25, 0x01	; 1
     806:	23 2b       	or	r18, r19
     808:	09 f0       	breq	.+2      	; 0x80c <_ZN5Motor9setSwitchEc+0x16e>
     80a:	90 e0       	ldi	r25, 0x00	; 0
     80c:	89 23       	and	r24, r25
     80e:	80 93 08 01 	sts	0x0108, r24	; 0x800108 <__TEXT_REGION_LENGTH__+0x700108>
     812:	ac c0       	rjmp	.+344    	; 0x96c <_ZN5Motor9setSwitchEc+0x2ce>
     814:	80 91 0b 01 	lds	r24, 0x010B	; 0x80010b <__TEXT_REGION_LENGTH__+0x70010b>
     818:	21 e0       	ldi	r18, 0x01	; 1
     81a:	30 e0       	ldi	r19, 0x00	; 0
     81c:	0d 84       	ldd	r0, Y+13	; 0x0d
     81e:	02 c0       	rjmp	.+4      	; 0x824 <_ZN5Motor9setSwitchEc+0x186>
     820:	22 0f       	add	r18, r18
     822:	33 1f       	adc	r19, r19
     824:	0a 94       	dec	r0
     826:	e2 f7       	brpl	.-8      	; 0x820 <_ZN5Motor9setSwitchEc+0x182>
     828:	91 e0       	ldi	r25, 0x01	; 1
     82a:	23 2b       	or	r18, r19
     82c:	09 f0       	breq	.+2      	; 0x830 <_ZN5Motor9setSwitchEc+0x192>
     82e:	90 e0       	ldi	r25, 0x00	; 0
     830:	89 23       	and	r24, r25
     832:	80 93 0b 01 	sts	0x010B, r24	; 0x80010b <__TEXT_REGION_LENGTH__+0x70010b>
     836:	9a c0       	rjmp	.+308    	; 0x96c <_ZN5Motor9setSwitchEc+0x2ce>
     838:	ec 85       	ldd	r30, Y+12	; 0x0c
     83a:	8e 2f       	mov	r24, r30
     83c:	90 e0       	ldi	r25, 0x00	; 0
     83e:	fc 01       	movw	r30, r24
     840:	e1 54       	subi	r30, 0x41	; 65
     842:	f1 09       	sbc	r31, r1
     844:	ec 30       	cpi	r30, 0x0C	; 12
     846:	f1 05       	cpc	r31, r1
     848:	08 f0       	brcs	.+2      	; 0x84c <_ZN5Motor9setSwitchEc+0x1ae>
     84a:	90 c0       	rjmp	.+288    	; 0x96c <_ZN5Motor9setSwitchEc+0x2ce>
     84c:	88 27       	eor	r24, r24
     84e:	e7 57       	subi	r30, 0x77	; 119
     850:	ff 4f       	sbci	r31, 0xFF	; 255
     852:	8f 4f       	sbci	r24, 0xFF	; 255
     854:	dd c7       	rjmp	.+4026   	; 0x1810 <__tablejump2__>
     856:	22 b1       	in	r18, 0x02	; 2
     858:	81 e0       	ldi	r24, 0x01	; 1
     85a:	90 e0       	ldi	r25, 0x00	; 0
     85c:	0d 84       	ldd	r0, Y+13	; 0x0d
     85e:	02 c0       	rjmp	.+4      	; 0x864 <_ZN5Motor9setSwitchEc+0x1c6>
     860:	88 0f       	add	r24, r24
     862:	99 1f       	adc	r25, r25
     864:	0a 94       	dec	r0
     866:	e2 f7       	brpl	.-8      	; 0x860 <_ZN5Motor9setSwitchEc+0x1c2>
     868:	82 2b       	or	r24, r18
     86a:	82 b9       	out	0x02, r24	; 2
     86c:	7f c0       	rjmp	.+254    	; 0x96c <_ZN5Motor9setSwitchEc+0x2ce>
     86e:	25 b1       	in	r18, 0x05	; 5
     870:	81 e0       	ldi	r24, 0x01	; 1
     872:	90 e0       	ldi	r25, 0x00	; 0
     874:	0d 84       	ldd	r0, Y+13	; 0x0d
     876:	02 c0       	rjmp	.+4      	; 0x87c <_ZN5Motor9setSwitchEc+0x1de>
     878:	88 0f       	add	r24, r24
     87a:	99 1f       	adc	r25, r25
     87c:	0a 94       	dec	r0
     87e:	e2 f7       	brpl	.-8      	; 0x878 <_ZN5Motor9setSwitchEc+0x1da>
     880:	82 2b       	or	r24, r18
     882:	85 b9       	out	0x05, r24	; 5
     884:	73 c0       	rjmp	.+230    	; 0x96c <_ZN5Motor9setSwitchEc+0x2ce>
     886:	28 b1       	in	r18, 0x08	; 8
     888:	81 e0       	ldi	r24, 0x01	; 1
     88a:	90 e0       	ldi	r25, 0x00	; 0
     88c:	0d 84       	ldd	r0, Y+13	; 0x0d
     88e:	02 c0       	rjmp	.+4      	; 0x894 <_ZN5Motor9setSwitchEc+0x1f6>
     890:	88 0f       	add	r24, r24
     892:	99 1f       	adc	r25, r25
     894:	0a 94       	dec	r0
     896:	e2 f7       	brpl	.-8      	; 0x890 <_ZN5Motor9setSwitchEc+0x1f2>
     898:	82 2b       	or	r24, r18
     89a:	88 b9       	out	0x08, r24	; 8
     89c:	67 c0       	rjmp	.+206    	; 0x96c <_ZN5Motor9setSwitchEc+0x2ce>
     89e:	2b b1       	in	r18, 0x0b	; 11
     8a0:	81 e0       	ldi	r24, 0x01	; 1
     8a2:	90 e0       	ldi	r25, 0x00	; 0
     8a4:	0d 84       	ldd	r0, Y+13	; 0x0d
     8a6:	02 c0       	rjmp	.+4      	; 0x8ac <_ZN5Motor9setSwitchEc+0x20e>
     8a8:	88 0f       	add	r24, r24
     8aa:	99 1f       	adc	r25, r25
     8ac:	0a 94       	dec	r0
     8ae:	e2 f7       	brpl	.-8      	; 0x8a8 <_ZN5Motor9setSwitchEc+0x20a>
     8b0:	82 2b       	or	r24, r18
     8b2:	8b b9       	out	0x0b, r24	; 11
     8b4:	5b c0       	rjmp	.+182    	; 0x96c <_ZN5Motor9setSwitchEc+0x2ce>
     8b6:	2e b1       	in	r18, 0x0e	; 14
     8b8:	81 e0       	ldi	r24, 0x01	; 1
     8ba:	90 e0       	ldi	r25, 0x00	; 0
     8bc:	0d 84       	ldd	r0, Y+13	; 0x0d
     8be:	02 c0       	rjmp	.+4      	; 0x8c4 <_ZN5Motor9setSwitchEc+0x226>
     8c0:	88 0f       	add	r24, r24
     8c2:	99 1f       	adc	r25, r25
     8c4:	0a 94       	dec	r0
     8c6:	e2 f7       	brpl	.-8      	; 0x8c0 <_ZN5Motor9setSwitchEc+0x222>
     8c8:	82 2b       	or	r24, r18
     8ca:	8e b9       	out	0x0e, r24	; 14
     8cc:	4f c0       	rjmp	.+158    	; 0x96c <_ZN5Motor9setSwitchEc+0x2ce>
     8ce:	21 b3       	in	r18, 0x11	; 17
     8d0:	81 e0       	ldi	r24, 0x01	; 1
     8d2:	90 e0       	ldi	r25, 0x00	; 0
     8d4:	0d 84       	ldd	r0, Y+13	; 0x0d
     8d6:	02 c0       	rjmp	.+4      	; 0x8dc <_ZN5Motor9setSwitchEc+0x23e>
     8d8:	88 0f       	add	r24, r24
     8da:	99 1f       	adc	r25, r25
     8dc:	0a 94       	dec	r0
     8de:	e2 f7       	brpl	.-8      	; 0x8d8 <_ZN5Motor9setSwitchEc+0x23a>
     8e0:	82 2b       	or	r24, r18
     8e2:	81 bb       	out	0x11, r24	; 17
     8e4:	43 c0       	rjmp	.+134    	; 0x96c <_ZN5Motor9setSwitchEc+0x2ce>
     8e6:	24 b3       	in	r18, 0x14	; 20
     8e8:	81 e0       	ldi	r24, 0x01	; 1
     8ea:	90 e0       	ldi	r25, 0x00	; 0
     8ec:	0d 84       	ldd	r0, Y+13	; 0x0d
     8ee:	02 c0       	rjmp	.+4      	; 0x8f4 <_ZN5Motor9setSwitchEc+0x256>
     8f0:	88 0f       	add	r24, r24
     8f2:	99 1f       	adc	r25, r25
     8f4:	0a 94       	dec	r0
     8f6:	e2 f7       	brpl	.-8      	; 0x8f0 <_ZN5Motor9setSwitchEc+0x252>
     8f8:	82 2b       	or	r24, r18
     8fa:	84 bb       	out	0x14, r24	; 20
     8fc:	37 c0       	rjmp	.+110    	; 0x96c <_ZN5Motor9setSwitchEc+0x2ce>
     8fe:	e2 e0       	ldi	r30, 0x02	; 2
     900:	f1 e0       	ldi	r31, 0x01	; 1
     902:	20 81       	ld	r18, Z
     904:	81 e0       	ldi	r24, 0x01	; 1
     906:	90 e0       	ldi	r25, 0x00	; 0
     908:	0d 84       	ldd	r0, Y+13	; 0x0d
     90a:	02 c0       	rjmp	.+4      	; 0x910 <_ZN5Motor9setSwitchEc+0x272>
     90c:	88 0f       	add	r24, r24
     90e:	99 1f       	adc	r25, r25
     910:	0a 94       	dec	r0
     912:	e2 f7       	brpl	.-8      	; 0x90c <_ZN5Motor9setSwitchEc+0x26e>
     914:	82 2b       	or	r24, r18
     916:	80 83       	st	Z, r24
     918:	29 c0       	rjmp	.+82     	; 0x96c <_ZN5Motor9setSwitchEc+0x2ce>
     91a:	e5 e0       	ldi	r30, 0x05	; 5
     91c:	f1 e0       	ldi	r31, 0x01	; 1
     91e:	20 81       	ld	r18, Z
     920:	81 e0       	ldi	r24, 0x01	; 1
     922:	90 e0       	ldi	r25, 0x00	; 0
     924:	0d 84       	ldd	r0, Y+13	; 0x0d
     926:	02 c0       	rjmp	.+4      	; 0x92c <_ZN5Motor9setSwitchEc+0x28e>
     928:	88 0f       	add	r24, r24
     92a:	99 1f       	adc	r25, r25
     92c:	0a 94       	dec	r0
     92e:	e2 f7       	brpl	.-8      	; 0x928 <_ZN5Motor9setSwitchEc+0x28a>
     930:	82 2b       	or	r24, r18
     932:	80 83       	st	Z, r24
     934:	1b c0       	rjmp	.+54     	; 0x96c <_ZN5Motor9setSwitchEc+0x2ce>
     936:	e8 e0       	ldi	r30, 0x08	; 8
     938:	f1 e0       	ldi	r31, 0x01	; 1
     93a:	20 81       	ld	r18, Z
     93c:	81 e0       	ldi	r24, 0x01	; 1
     93e:	90 e0       	ldi	r25, 0x00	; 0
     940:	0d 84       	ldd	r0, Y+13	; 0x0d
     942:	02 c0       	rjmp	.+4      	; 0x948 <_ZN5Motor9setSwitchEc+0x2aa>
     944:	88 0f       	add	r24, r24
     946:	99 1f       	adc	r25, r25
     948:	0a 94       	dec	r0
     94a:	e2 f7       	brpl	.-8      	; 0x944 <_ZN5Motor9setSwitchEc+0x2a6>
     94c:	82 2b       	or	r24, r18
     94e:	80 83       	st	Z, r24
     950:	0d c0       	rjmp	.+26     	; 0x96c <_ZN5Motor9setSwitchEc+0x2ce>
     952:	eb e0       	ldi	r30, 0x0B	; 11
     954:	f1 e0       	ldi	r31, 0x01	; 1
     956:	20 81       	ld	r18, Z
     958:	81 e0       	ldi	r24, 0x01	; 1
     95a:	90 e0       	ldi	r25, 0x00	; 0
     95c:	0d 84       	ldd	r0, Y+13	; 0x0d
     95e:	02 c0       	rjmp	.+4      	; 0x964 <_ZN5Motor9setSwitchEc+0x2c6>
     960:	88 0f       	add	r24, r24
     962:	99 1f       	adc	r25, r25
     964:	0a 94       	dec	r0
     966:	e2 f7       	brpl	.-8      	; 0x960 <_ZN5Motor9setSwitchEc+0x2c2>
     968:	82 2b       	or	r24, r18
     96a:	80 83       	st	Z, r24
     96c:	df 91       	pop	r29
     96e:	cf 91       	pop	r28
     970:	08 95       	ret

00000972 <_ZN5Motor9stopTimerEv>:
     972:	cf 93       	push	r28
     974:	df 93       	push	r29
     976:	ec 01       	movw	r28, r24
     978:	60 e0       	ldi	r22, 0x00	; 0
     97a:	91 de       	rcall	.-734    	; 0x69e <_ZN5Motor9setSwitchEc>
     97c:	8a 85       	ldd	r24, Y+10	; 0x0a
     97e:	83 30       	cpi	r24, 0x03	; 3
     980:	79 f0       	breq	.+30     	; 0x9a0 <_ZN5Motor9stopTimerEv+0x2e>
     982:	18 f4       	brcc	.+6      	; 0x98a <_ZN5Motor9stopTimerEv+0x18>
     984:	81 30       	cpi	r24, 0x01	; 1
     986:	31 f0       	breq	.+12     	; 0x994 <_ZN5Motor9stopTimerEv+0x22>
     988:	1c c0       	rjmp	.+56     	; 0x9c2 <_ZN5Motor9stopTimerEv+0x50>
     98a:	84 30       	cpi	r24, 0x04	; 4
     98c:	79 f0       	breq	.+30     	; 0x9ac <_ZN5Motor9stopTimerEv+0x3a>
     98e:	85 30       	cpi	r24, 0x05	; 5
     990:	99 f0       	breq	.+38     	; 0x9b8 <_ZN5Motor9stopTimerEv+0x46>
     992:	17 c0       	rjmp	.+46     	; 0x9c2 <_ZN5Motor9stopTimerEv+0x50>
     994:	e1 e8       	ldi	r30, 0x81	; 129
     996:	f0 e0       	ldi	r31, 0x00	; 0
     998:	80 81       	ld	r24, Z
     99a:	8a 7f       	andi	r24, 0xFA	; 250
     99c:	80 83       	st	Z, r24
     99e:	11 c0       	rjmp	.+34     	; 0x9c2 <_ZN5Motor9stopTimerEv+0x50>
     9a0:	e1 e9       	ldi	r30, 0x91	; 145
     9a2:	f0 e0       	ldi	r31, 0x00	; 0
     9a4:	80 81       	ld	r24, Z
     9a6:	8a 7f       	andi	r24, 0xFA	; 250
     9a8:	80 83       	st	Z, r24
     9aa:	0b c0       	rjmp	.+22     	; 0x9c2 <_ZN5Motor9stopTimerEv+0x50>
     9ac:	e1 ea       	ldi	r30, 0xA1	; 161
     9ae:	f0 e0       	ldi	r31, 0x00	; 0
     9b0:	80 81       	ld	r24, Z
     9b2:	8a 7f       	andi	r24, 0xFA	; 250
     9b4:	80 83       	st	Z, r24
     9b6:	05 c0       	rjmp	.+10     	; 0x9c2 <_ZN5Motor9stopTimerEv+0x50>
     9b8:	e1 e2       	ldi	r30, 0x21	; 33
     9ba:	f1 e0       	ldi	r31, 0x01	; 1
     9bc:	80 81       	ld	r24, Z
     9be:	8a 7f       	andi	r24, 0xFA	; 250
     9c0:	80 83       	st	Z, r24
     9c2:	df 91       	pop	r29
     9c4:	cf 91       	pop	r28
     9c6:	08 95       	ret

000009c8 <_ZN5Motor10startTimerEv>:
     9c8:	fc 01       	movw	r30, r24
     9ca:	82 85       	ldd	r24, Z+10	; 0x0a
     9cc:	83 30       	cpi	r24, 0x03	; 3
     9ce:	79 f0       	breq	.+30     	; 0x9ee <_ZN5Motor10startTimerEv+0x26>
     9d0:	18 f4       	brcc	.+6      	; 0x9d8 <_ZN5Motor10startTimerEv+0x10>
     9d2:	81 30       	cpi	r24, 0x01	; 1
     9d4:	31 f0       	breq	.+12     	; 0x9e2 <_ZN5Motor10startTimerEv+0x1a>
     9d6:	08 95       	ret
     9d8:	84 30       	cpi	r24, 0x04	; 4
     9da:	79 f0       	breq	.+30     	; 0x9fa <_ZN5Motor10startTimerEv+0x32>
     9dc:	85 30       	cpi	r24, 0x05	; 5
     9de:	99 f0       	breq	.+38     	; 0xa06 <_ZN5Motor10startTimerEv+0x3e>
     9e0:	08 95       	ret
     9e2:	e1 e8       	ldi	r30, 0x81	; 129
     9e4:	f0 e0       	ldi	r31, 0x00	; 0
     9e6:	80 81       	ld	r24, Z
     9e8:	85 60       	ori	r24, 0x05	; 5
     9ea:	80 83       	st	Z, r24
     9ec:	08 95       	ret
     9ee:	e1 e9       	ldi	r30, 0x91	; 145
     9f0:	f0 e0       	ldi	r31, 0x00	; 0
     9f2:	80 81       	ld	r24, Z
     9f4:	85 60       	ori	r24, 0x05	; 5
     9f6:	80 83       	st	Z, r24
     9f8:	08 95       	ret
     9fa:	e1 ea       	ldi	r30, 0xA1	; 161
     9fc:	f0 e0       	ldi	r31, 0x00	; 0
     9fe:	80 81       	ld	r24, Z
     a00:	85 60       	ori	r24, 0x05	; 5
     a02:	80 83       	st	Z, r24
     a04:	08 95       	ret
     a06:	e1 e2       	ldi	r30, 0x21	; 33
     a08:	f1 e0       	ldi	r31, 0x01	; 1
     a0a:	80 81       	ld	r24, Z
     a0c:	85 60       	ori	r24, 0x05	; 5
     a0e:	80 83       	st	Z, r24
     a10:	08 95       	ret

00000a12 <_ZN5Motor6setAccEf>:
     a12:	fc 01       	movw	r30, r24
     a14:	40 83       	st	Z, r20
     a16:	51 83       	std	Z+1, r21	; 0x01
     a18:	62 83       	std	Z+2, r22	; 0x02
     a1a:	73 83       	std	Z+3, r23	; 0x03
     a1c:	08 95       	ret

00000a1e <_ZN5Motor6setPWMEi>:
     a1e:	fc 01       	movw	r30, r24
     a20:	93 85       	ldd	r25, Z+11	; 0x0b
     a22:	92 34       	cpi	r25, 0x42	; 66
     a24:	31 f1       	breq	.+76     	; 0xa72 <_ZN5Motor6setPWMEi+0x54>
     a26:	93 34       	cpi	r25, 0x43	; 67
     a28:	09 f4       	brne	.+2      	; 0xa2c <_ZN5Motor6setPWMEi+0xe>
     a2a:	43 c0       	rjmp	.+134    	; 0xab2 <_ZN5Motor6setPWMEi+0x94>
     a2c:	91 34       	cpi	r25, 0x41	; 65
     a2e:	09 f0       	breq	.+2      	; 0xa32 <_ZN5Motor6setPWMEi+0x14>
     a30:	5f c0       	rjmp	.+190    	; 0xaf0 <_ZN5Motor6setPWMEi+0xd2>
     a32:	82 85       	ldd	r24, Z+10	; 0x0a
     a34:	83 30       	cpi	r24, 0x03	; 3
     a36:	71 f0       	breq	.+28     	; 0xa54 <_ZN5Motor6setPWMEi+0x36>
     a38:	18 f4       	brcc	.+6      	; 0xa40 <_ZN5Motor6setPWMEi+0x22>
     a3a:	81 30       	cpi	r24, 0x01	; 1
     a3c:	31 f0       	breq	.+12     	; 0xa4a <_ZN5Motor6setPWMEi+0x2c>
     a3e:	08 95       	ret
     a40:	84 30       	cpi	r24, 0x04	; 4
     a42:	69 f0       	breq	.+26     	; 0xa5e <_ZN5Motor6setPWMEi+0x40>
     a44:	85 30       	cpi	r24, 0x05	; 5
     a46:	81 f0       	breq	.+32     	; 0xa68 <_ZN5Motor6setPWMEi+0x4a>
     a48:	08 95       	ret
     a4a:	70 93 89 00 	sts	0x0089, r23	; 0x800089 <__TEXT_REGION_LENGTH__+0x700089>
     a4e:	60 93 88 00 	sts	0x0088, r22	; 0x800088 <__TEXT_REGION_LENGTH__+0x700088>
     a52:	08 95       	ret
     a54:	70 93 99 00 	sts	0x0099, r23	; 0x800099 <__TEXT_REGION_LENGTH__+0x700099>
     a58:	60 93 98 00 	sts	0x0098, r22	; 0x800098 <__TEXT_REGION_LENGTH__+0x700098>
     a5c:	08 95       	ret
     a5e:	70 93 a9 00 	sts	0x00A9, r23	; 0x8000a9 <__TEXT_REGION_LENGTH__+0x7000a9>
     a62:	60 93 a8 00 	sts	0x00A8, r22	; 0x8000a8 <__TEXT_REGION_LENGTH__+0x7000a8>
     a66:	08 95       	ret
     a68:	70 93 29 01 	sts	0x0129, r23	; 0x800129 <__TEXT_REGION_LENGTH__+0x700129>
     a6c:	60 93 28 01 	sts	0x0128, r22	; 0x800128 <__TEXT_REGION_LENGTH__+0x700128>
     a70:	08 95       	ret
     a72:	82 85       	ldd	r24, Z+10	; 0x0a
     a74:	83 30       	cpi	r24, 0x03	; 3
     a76:	71 f0       	breq	.+28     	; 0xa94 <_ZN5Motor6setPWMEi+0x76>
     a78:	18 f4       	brcc	.+6      	; 0xa80 <_ZN5Motor6setPWMEi+0x62>
     a7a:	81 30       	cpi	r24, 0x01	; 1
     a7c:	31 f0       	breq	.+12     	; 0xa8a <_ZN5Motor6setPWMEi+0x6c>
     a7e:	08 95       	ret
     a80:	84 30       	cpi	r24, 0x04	; 4
     a82:	69 f0       	breq	.+26     	; 0xa9e <_ZN5Motor6setPWMEi+0x80>
     a84:	85 30       	cpi	r24, 0x05	; 5
     a86:	81 f0       	breq	.+32     	; 0xaa8 <_ZN5Motor6setPWMEi+0x8a>
     a88:	08 95       	ret
     a8a:	70 93 8b 00 	sts	0x008B, r23	; 0x80008b <__TEXT_REGION_LENGTH__+0x70008b>
     a8e:	60 93 8a 00 	sts	0x008A, r22	; 0x80008a <__TEXT_REGION_LENGTH__+0x70008a>
     a92:	08 95       	ret
     a94:	70 93 9b 00 	sts	0x009B, r23	; 0x80009b <__TEXT_REGION_LENGTH__+0x70009b>
     a98:	60 93 9a 00 	sts	0x009A, r22	; 0x80009a <__TEXT_REGION_LENGTH__+0x70009a>
     a9c:	08 95       	ret
     a9e:	70 93 ab 00 	sts	0x00AB, r23	; 0x8000ab <__TEXT_REGION_LENGTH__+0x7000ab>
     aa2:	60 93 aa 00 	sts	0x00AA, r22	; 0x8000aa <__TEXT_REGION_LENGTH__+0x7000aa>
     aa6:	08 95       	ret
     aa8:	70 93 2b 01 	sts	0x012B, r23	; 0x80012b <__TEXT_REGION_LENGTH__+0x70012b>
     aac:	60 93 2a 01 	sts	0x012A, r22	; 0x80012a <__TEXT_REGION_LENGTH__+0x70012a>
     ab0:	08 95       	ret
     ab2:	82 85       	ldd	r24, Z+10	; 0x0a
     ab4:	83 30       	cpi	r24, 0x03	; 3
     ab6:	71 f0       	breq	.+28     	; 0xad4 <_ZN5Motor6setPWMEi+0xb6>
     ab8:	18 f4       	brcc	.+6      	; 0xac0 <_ZN5Motor6setPWMEi+0xa2>
     aba:	81 30       	cpi	r24, 0x01	; 1
     abc:	31 f0       	breq	.+12     	; 0xaca <_ZN5Motor6setPWMEi+0xac>
     abe:	08 95       	ret
     ac0:	84 30       	cpi	r24, 0x04	; 4
     ac2:	69 f0       	breq	.+26     	; 0xade <_ZN5Motor6setPWMEi+0xc0>
     ac4:	85 30       	cpi	r24, 0x05	; 5
     ac6:	81 f0       	breq	.+32     	; 0xae8 <_ZN5Motor6setPWMEi+0xca>
     ac8:	08 95       	ret
     aca:	70 93 8d 00 	sts	0x008D, r23	; 0x80008d <__TEXT_REGION_LENGTH__+0x70008d>
     ace:	60 93 8c 00 	sts	0x008C, r22	; 0x80008c <__TEXT_REGION_LENGTH__+0x70008c>
     ad2:	08 95       	ret
     ad4:	70 93 9d 00 	sts	0x009D, r23	; 0x80009d <__TEXT_REGION_LENGTH__+0x70009d>
     ad8:	60 93 9c 00 	sts	0x009C, r22	; 0x80009c <__TEXT_REGION_LENGTH__+0x70009c>
     adc:	08 95       	ret
     ade:	70 93 ad 00 	sts	0x00AD, r23	; 0x8000ad <__TEXT_REGION_LENGTH__+0x7000ad>
     ae2:	60 93 ac 00 	sts	0x00AC, r22	; 0x8000ac <__TEXT_REGION_LENGTH__+0x7000ac>
     ae6:	08 95       	ret
     ae8:	70 93 2d 01 	sts	0x012D, r23	; 0x80012d <__TEXT_REGION_LENGTH__+0x70012d>
     aec:	60 93 2c 01 	sts	0x012C, r22	; 0x80012c <__TEXT_REGION_LENGTH__+0x70012c>
     af0:	08 95       	ret

00000af2 <_ZN5Motor4tickEv>:
     af2:	cf 92       	push	r12
     af4:	df 92       	push	r13
     af6:	ef 92       	push	r14
     af8:	ff 92       	push	r15
     afa:	0f 93       	push	r16
     afc:	1f 93       	push	r17
     afe:	cf 93       	push	r28
     b00:	df 93       	push	r29
     b02:	ec 01       	movw	r28, r24
     b04:	ce 80       	ldd	r12, Y+6	; 0x06
     b06:	df 80       	ldd	r13, Y+7	; 0x07
     b08:	e8 84       	ldd	r14, Y+8	; 0x08
     b0a:	f9 84       	ldd	r15, Y+9	; 0x09
     b0c:	20 e0       	ldi	r18, 0x00	; 0
     b0e:	30 e0       	ldi	r19, 0x00	; 0
     b10:	40 e2       	ldi	r20, 0x20	; 32
     b12:	52 ec       	ldi	r21, 0xC2	; 194
     b14:	c7 01       	movw	r24, r14
     b16:	b6 01       	movw	r22, r12
     b18:	df d5       	rcall	.+3006   	; 0x16d8 <__gesf2>
     b1a:	18 16       	cp	r1, r24
     b1c:	64 f4       	brge	.+24     	; 0xb36 <_ZN5Motor4tickEv+0x44>
     b1e:	20 e0       	ldi	r18, 0x00	; 0
     b20:	30 e0       	ldi	r19, 0x00	; 0
     b22:	40 e2       	ldi	r20, 0x20	; 32
     b24:	52 e4       	ldi	r21, 0x42	; 66
     b26:	c7 01       	movw	r24, r14
     b28:	b6 01       	movw	r22, r12
     b2a:	87 d4       	rcall	.+2318   	; 0x143a <__cmpsf2>
     b2c:	88 23       	and	r24, r24
     b2e:	1c f4       	brge	.+6      	; 0xb36 <_ZN5Motor4tickEv+0x44>
     b30:	ce 01       	movw	r24, r28
     b32:	1f df       	rcall	.-450    	; 0x972 <_ZN5Motor9stopTimerEv>
     b34:	24 c0       	rjmp	.+72     	; 0xb7e <_ZN5Motor4tickEv+0x8c>
     b36:	ce 01       	movw	r24, r28
     b38:	47 df       	rcall	.-370    	; 0x9c8 <_ZN5Motor10startTimerEv>
     b3a:	20 e0       	ldi	r18, 0x00	; 0
     b3c:	30 e0       	ldi	r19, 0x00	; 0
     b3e:	a9 01       	movw	r20, r18
     b40:	6e 81       	ldd	r22, Y+6	; 0x06
     b42:	7f 81       	ldd	r23, Y+7	; 0x07
     b44:	88 85       	ldd	r24, Y+8	; 0x08
     b46:	99 85       	ldd	r25, Y+9	; 0x09
     b48:	c7 d5       	rcall	.+2958   	; 0x16d8 <__gesf2>
     b4a:	18 16       	cp	r1, r24
     b4c:	5c f4       	brge	.+22     	; 0xb64 <_ZN5Motor4tickEv+0x72>
     b4e:	60 e0       	ldi	r22, 0x00	; 0
     b50:	ce 01       	movw	r24, r28
     b52:	a5 dd       	rcall	.-1206   	; 0x69e <_ZN5Motor9setSwitchEc>
     b54:	6e 81       	ldd	r22, Y+6	; 0x06
     b56:	7f 81       	ldd	r23, Y+7	; 0x07
     b58:	88 85       	ldd	r24, Y+8	; 0x08
     b5a:	99 85       	ldd	r25, Y+9	; 0x09
     b5c:	da d4       	rcall	.+2484   	; 0x1512 <__fixsfsi>
     b5e:	ce 01       	movw	r24, r28
     b60:	5e df       	rcall	.-324    	; 0xa1e <_ZN5Motor6setPWMEi>
     b62:	0d c0       	rjmp	.+26     	; 0xb7e <_ZN5Motor4tickEv+0x8c>
     b64:	61 e0       	ldi	r22, 0x01	; 1
     b66:	ce 01       	movw	r24, r28
     b68:	9a dd       	rcall	.-1228   	; 0x69e <_ZN5Motor9setSwitchEc>
     b6a:	8e 81       	ldd	r24, Y+6	; 0x06
     b6c:	9f 81       	ldd	r25, Y+7	; 0x07
     b6e:	a8 85       	ldd	r26, Y+8	; 0x08
     b70:	b9 85       	ldd	r27, Y+9	; 0x09
     b72:	bc 01       	movw	r22, r24
     b74:	cd 01       	movw	r24, r26
     b76:	90 58       	subi	r25, 0x80	; 128
     b78:	cc d4       	rcall	.+2456   	; 0x1512 <__fixsfsi>
     b7a:	ce 01       	movw	r24, r28
     b7c:	50 df       	rcall	.-352    	; 0xa1e <_ZN5Motor6setPWMEi>
     b7e:	8e 85       	ldd	r24, Y+14	; 0x0e
     b80:	88 23       	and	r24, r24
     b82:	09 f4       	brne	.+2      	; 0xb86 <_ZN5Motor4tickEv+0x94>
     b84:	41 c0       	rjmp	.+130    	; 0xc08 <_ZN5Motor4tickEv+0x116>
     b86:	ce 80       	ldd	r12, Y+6	; 0x06
     b88:	df 80       	ldd	r13, Y+7	; 0x07
     b8a:	e8 84       	ldd	r14, Y+8	; 0x08
     b8c:	f9 84       	ldd	r15, Y+9	; 0x09
     b8e:	0c 81       	ldd	r16, Y+4	; 0x04
     b90:	1d 81       	ldd	r17, Y+5	; 0x05
     b92:	b8 01       	movw	r22, r16
     b94:	66 5f       	subi	r22, 0xF6	; 246
     b96:	7f 4f       	sbci	r23, 0xFF	; 255
     b98:	07 2e       	mov	r0, r23
     b9a:	00 0c       	add	r0, r0
     b9c:	88 0b       	sbc	r24, r24
     b9e:	99 0b       	sbc	r25, r25
     ba0:	eb d4       	rcall	.+2518   	; 0x1578 <__floatsisf>
     ba2:	9b 01       	movw	r18, r22
     ba4:	ac 01       	movw	r20, r24
     ba6:	c7 01       	movw	r24, r14
     ba8:	b6 01       	movw	r22, r12
     baa:	47 d4       	rcall	.+2190   	; 0x143a <__cmpsf2>
     bac:	88 23       	and	r24, r24
     bae:	7c f4       	brge	.+30     	; 0xbce <_ZN5Motor4tickEv+0xdc>
     bb0:	b8 01       	movw	r22, r16
     bb2:	6a 50       	subi	r22, 0x0A	; 10
     bb4:	71 09       	sbc	r23, r1
     bb6:	07 2e       	mov	r0, r23
     bb8:	00 0c       	add	r0, r0
     bba:	88 0b       	sbc	r24, r24
     bbc:	99 0b       	sbc	r25, r25
     bbe:	dc d4       	rcall	.+2488   	; 0x1578 <__floatsisf>
     bc0:	9b 01       	movw	r18, r22
     bc2:	ac 01       	movw	r20, r24
     bc4:	c7 01       	movw	r24, r14
     bc6:	b6 01       	movw	r22, r12
     bc8:	87 d5       	rcall	.+2830   	; 0x16d8 <__gesf2>
     bca:	18 16       	cp	r1, r24
     bcc:	9c f0       	brlt	.+38     	; 0xbf4 <_ZN5Motor4tickEv+0x102>
     bce:	20 e0       	ldi	r18, 0x00	; 0
     bd0:	30 e0       	ldi	r19, 0x00	; 0
     bd2:	40 e2       	ldi	r20, 0x20	; 32
     bd4:	52 ec       	ldi	r21, 0xC2	; 194
     bd6:	c7 01       	movw	r24, r14
     bd8:	b6 01       	movw	r22, r12
     bda:	7e d5       	rcall	.+2812   	; 0x16d8 <__gesf2>
     bdc:	18 16       	cp	r1, r24
     bde:	a4 f4       	brge	.+40     	; 0xc08 <_ZN5Motor4tickEv+0x116>
     be0:	20 e0       	ldi	r18, 0x00	; 0
     be2:	30 e0       	ldi	r19, 0x00	; 0
     be4:	40 e2       	ldi	r20, 0x20	; 32
     be6:	52 e4       	ldi	r21, 0x42	; 66
     be8:	c7 01       	movw	r24, r14
     bea:	b6 01       	movw	r22, r12
     bec:	26 d4       	rcall	.+2124   	; 0x143a <__cmpsf2>
     bee:	88 23       	and	r24, r24
     bf0:	0c f0       	brlt	.+2      	; 0xbf4 <_ZN5Motor4tickEv+0x102>
     bf2:	64 c0       	rjmp	.+200    	; 0xcbc <_ZN5Motor4tickEv+0x1ca>
     bf4:	1e 86       	std	Y+14, r1	; 0x0e
     bf6:	81 e0       	ldi	r24, 0x01	; 1
     bf8:	8f 87       	std	Y+15, r24	; 0x0f
     bfa:	84 e0       	ldi	r24, 0x04	; 4
     bfc:	80 93 81 00 	sts	0x0081, r24	; 0x800081 <__TEXT_REGION_LENGTH__+0x700081>
     c00:	10 92 85 00 	sts	0x0085, r1	; 0x800085 <__TEXT_REGION_LENGTH__+0x700085>
     c04:	10 92 84 00 	sts	0x0084, r1	; 0x800084 <__TEXT_REGION_LENGTH__+0x700084>
     c08:	8f 85       	ldd	r24, Y+15	; 0x0f
     c0a:	88 23       	and	r24, r24
     c0c:	51 f0       	breq	.+20     	; 0xc22 <_ZN5Motor4tickEv+0x130>
     c0e:	80 91 84 00 	lds	r24, 0x0084	; 0x800084 <__TEXT_REGION_LENGTH__+0x700084>
     c12:	90 91 85 00 	lds	r25, 0x0085	; 0x800085 <__TEXT_REGION_LENGTH__+0x700085>
     c16:	83 31       	cpi	r24, 0x13	; 19
     c18:	9a 47       	sbci	r25, 0x7A	; 122
     c1a:	18 f0       	brcs	.+6      	; 0xc22 <_ZN5Motor4tickEv+0x130>
     c1c:	1f 86       	std	Y+15, r1	; 0x0f
     c1e:	10 92 81 00 	sts	0x0081, r1	; 0x800081 <__TEXT_REGION_LENGTH__+0x700081>
     c22:	ce 80       	ldd	r12, Y+6	; 0x06
     c24:	df 80       	ldd	r13, Y+7	; 0x07
     c26:	e8 84       	ldd	r14, Y+8	; 0x08
     c28:	f9 84       	ldd	r15, Y+9	; 0x09
     c2a:	20 e0       	ldi	r18, 0x00	; 0
     c2c:	30 e0       	ldi	r19, 0x00	; 0
     c2e:	40 e2       	ldi	r20, 0x20	; 32
     c30:	52 ec       	ldi	r21, 0xC2	; 194
     c32:	c7 01       	movw	r24, r14
     c34:	b6 01       	movw	r22, r12
     c36:	50 d5       	rcall	.+2720   	; 0x16d8 <__gesf2>
     c38:	18 16       	cp	r1, r24
     c3a:	c4 f4       	brge	.+48     	; 0xc6c <_ZN5Motor4tickEv+0x17a>
     c3c:	20 e0       	ldi	r18, 0x00	; 0
     c3e:	30 e0       	ldi	r19, 0x00	; 0
     c40:	40 e2       	ldi	r20, 0x20	; 32
     c42:	52 e4       	ldi	r21, 0x42	; 66
     c44:	c7 01       	movw	r24, r14
     c46:	b6 01       	movw	r22, r12
     c48:	f8 d3       	rcall	.+2032   	; 0x143a <__cmpsf2>
     c4a:	88 23       	and	r24, r24
     c4c:	7c f4       	brge	.+30     	; 0xc6c <_ZN5Motor4tickEv+0x17a>
     c4e:	8e 85       	ldd	r24, Y+14	; 0x0e
     c50:	81 11       	cpse	r24, r1
     c52:	07 c0       	rjmp	.+14     	; 0xc62 <_ZN5Motor4tickEv+0x170>
     c54:	8f 85       	ldd	r24, Y+15	; 0x0f
     c56:	81 11       	cpse	r24, r1
     c58:	04 c0       	rjmp	.+8      	; 0xc62 <_ZN5Motor4tickEv+0x170>
     c5a:	60 e0       	ldi	r22, 0x00	; 0
     c5c:	ce 01       	movw	r24, r28
     c5e:	40 96       	adiw	r24, 0x10	; 16
     c60:	c3 da       	rcall	.-2682   	; 0x1e8 <_ZN5Light9lysStyrkeEc>
     c62:	60 e0       	ldi	r22, 0x00	; 0
     c64:	ce 01       	movw	r24, r28
     c66:	40 96       	adiw	r24, 0x10	; 16
     c68:	d6 da       	rcall	.-2644   	; 0x216 <_ZN5Light6forLysEc>
     c6a:	1b c0       	rjmp	.+54     	; 0xca2 <_ZN5Motor4tickEv+0x1b0>
     c6c:	8e 85       	ldd	r24, Y+14	; 0x0e
     c6e:	81 11       	cpse	r24, r1
     c70:	0b c0       	rjmp	.+22     	; 0xc88 <_ZN5Motor4tickEv+0x196>
     c72:	8f 85       	ldd	r24, Y+15	; 0x0f
     c74:	81 11       	cpse	r24, r1
     c76:	08 c0       	rjmp	.+16     	; 0xc88 <_ZN5Motor4tickEv+0x196>
     c78:	20 e0       	ldi	r18, 0x00	; 0
     c7a:	30 e0       	ldi	r19, 0x00	; 0
     c7c:	a9 01       	movw	r20, r18
     c7e:	c7 01       	movw	r24, r14
     c80:	b6 01       	movw	r22, r12
     c82:	db d3       	rcall	.+1974   	; 0x143a <__cmpsf2>
     c84:	88 23       	and	r24, r24
     c86:	2c f4       	brge	.+10     	; 0xc92 <_ZN5Motor4tickEv+0x1a0>
     c88:	62 e0       	ldi	r22, 0x02	; 2
     c8a:	ce 01       	movw	r24, r28
     c8c:	40 96       	adiw	r24, 0x10	; 16
     c8e:	ac da       	rcall	.-2728   	; 0x1e8 <_ZN5Light9lysStyrkeEc>
     c90:	04 c0       	rjmp	.+8      	; 0xc9a <_ZN5Motor4tickEv+0x1a8>
     c92:	61 e0       	ldi	r22, 0x01	; 1
     c94:	ce 01       	movw	r24, r28
     c96:	40 96       	adiw	r24, 0x10	; 16
     c98:	a7 da       	rcall	.-2738   	; 0x1e8 <_ZN5Light9lysStyrkeEc>
     c9a:	61 e0       	ldi	r22, 0x01	; 1
     c9c:	ce 01       	movw	r24, r28
     c9e:	40 96       	adiw	r24, 0x10	; 16
     ca0:	ba da       	rcall	.-2700   	; 0x216 <_ZN5Light6forLysEc>
     ca2:	ce 01       	movw	r24, r28
     ca4:	ed db       	rcall	.-2086   	; 0x480 <_ZN5Motor7lerpPWMEv>
     ca6:	1c c0       	rjmp	.+56     	; 0xce0 <_ZN5Motor4tickEv+0x1ee>
     ca8:	20 e0       	ldi	r18, 0x00	; 0
     caa:	30 e0       	ldi	r19, 0x00	; 0
     cac:	40 e2       	ldi	r20, 0x20	; 32
     cae:	52 e4       	ldi	r21, 0x42	; 66
     cb0:	c7 01       	movw	r24, r14
     cb2:	b6 01       	movw	r22, r12
     cb4:	c2 d3       	rcall	.+1924   	; 0x143a <__cmpsf2>
     cb6:	88 23       	and	r24, r24
     cb8:	a4 f2       	brlt	.-88     	; 0xc62 <_ZN5Motor4tickEv+0x170>
     cba:	d8 cf       	rjmp	.-80     	; 0xc6c <_ZN5Motor4tickEv+0x17a>
     cbc:	8f 85       	ldd	r24, Y+15	; 0x0f
     cbe:	88 23       	and	r24, r24
     cc0:	99 f3       	breq	.-26     	; 0xca8 <_ZN5Motor4tickEv+0x1b6>
     cc2:	05 c0       	rjmp	.+10     	; 0xcce <_ZN5Motor4tickEv+0x1dc>
     cc4:	ce 80       	ldd	r12, Y+6	; 0x06
     cc6:	df 80       	ldd	r13, Y+7	; 0x07
     cc8:	e8 84       	ldd	r14, Y+8	; 0x08
     cca:	f9 84       	ldd	r15, Y+9	; 0x09
     ccc:	b7 cf       	rjmp	.-146    	; 0xc3c <_ZN5Motor4tickEv+0x14a>
     cce:	80 91 84 00 	lds	r24, 0x0084	; 0x800084 <__TEXT_REGION_LENGTH__+0x700084>
     cd2:	90 91 85 00 	lds	r25, 0x0085	; 0x800085 <__TEXT_REGION_LENGTH__+0x700085>
     cd6:	83 31       	cpi	r24, 0x13	; 19
     cd8:	9a 47       	sbci	r25, 0x7A	; 122
     cda:	08 f0       	brcs	.+2      	; 0xcde <_ZN5Motor4tickEv+0x1ec>
     cdc:	9f cf       	rjmp	.-194    	; 0xc1c <_ZN5Motor4tickEv+0x12a>
     cde:	f2 cf       	rjmp	.-28     	; 0xcc4 <_ZN5Motor4tickEv+0x1d2>
     ce0:	df 91       	pop	r29
     ce2:	cf 91       	pop	r28
     ce4:	1f 91       	pop	r17
     ce6:	0f 91       	pop	r16
     ce8:	ff 90       	pop	r15
     cea:	ef 90       	pop	r14
     cec:	df 90       	pop	r13
     cee:	cf 90       	pop	r12
     cf0:	08 95       	ret

00000cf2 <_ZN5Motor13setTimerIndexEcc>:
     cf2:	fc 01       	movw	r30, r24
     cf4:	62 87       	std	Z+10, r22	; 0x0a
     cf6:	43 87       	std	Z+11, r20	; 0x0b
     cf8:	42 34       	cpi	r20, 0x42	; 66
     cfa:	09 f4       	brne	.+2      	; 0xcfe <_ZN5Motor13setTimerIndexEcc+0xc>
     cfc:	47 c0       	rjmp	.+142    	; 0xd8c <_ZN5Motor13setTimerIndexEcc+0x9a>
     cfe:	43 34       	cpi	r20, 0x43	; 67
     d00:	09 f4       	brne	.+2      	; 0xd04 <_ZN5Motor13setTimerIndexEcc+0x12>
     d02:	88 c0       	rjmp	.+272    	; 0xe14 <_ZN5Motor13setTimerIndexEcc+0x122>
     d04:	41 34       	cpi	r20, 0x41	; 65
     d06:	11 f0       	breq	.+4      	; 0xd0c <_ZN5Motor13setTimerIndexEcc+0x1a>
     d08:	81 e4       	ldi	r24, 0x41	; 65
     d0a:	83 87       	std	Z+11, r24	; 0x0b
     d0c:	63 30       	cpi	r22, 0x03	; 3
     d0e:	b1 f0       	breq	.+44     	; 0xd3c <_ZN5Motor13setTimerIndexEcc+0x4a>
     d10:	18 f4       	brcc	.+6      	; 0xd18 <_ZN5Motor13setTimerIndexEcc+0x26>
     d12:	61 30       	cpi	r22, 0x01	; 1
     d14:	39 f0       	breq	.+14     	; 0xd24 <_ZN5Motor13setTimerIndexEcc+0x32>
     d16:	04 c0       	rjmp	.+8      	; 0xd20 <_ZN5Motor13setTimerIndexEcc+0x2e>
     d18:	64 30       	cpi	r22, 0x04	; 4
     d1a:	e1 f0       	breq	.+56     	; 0xd54 <_ZN5Motor13setTimerIndexEcc+0x62>
     d1c:	65 30       	cpi	r22, 0x05	; 5
     d1e:	41 f1       	breq	.+80     	; 0xd70 <_ZN5Motor13setTimerIndexEcc+0x7e>
     d20:	81 e0       	ldi	r24, 0x01	; 1
     d22:	82 87       	std	Z+10, r24	; 0x0a
     d24:	e0 e8       	ldi	r30, 0x80	; 128
     d26:	f0 e0       	ldi	r31, 0x00	; 0
     d28:	80 81       	ld	r24, Z
     d2a:	81 68       	ori	r24, 0x81	; 129
     d2c:	80 83       	st	Z, r24
     d2e:	e1 e8       	ldi	r30, 0x81	; 129
     d30:	f0 e0       	ldi	r31, 0x00	; 0
     d32:	80 81       	ld	r24, Z
     d34:	8d 60       	ori	r24, 0x0D	; 13
     d36:	80 83       	st	Z, r24
     d38:	25 9a       	sbi	0x04, 5	; 4
     d3a:	08 95       	ret
     d3c:	e0 e9       	ldi	r30, 0x90	; 144
     d3e:	f0 e0       	ldi	r31, 0x00	; 0
     d40:	80 81       	ld	r24, Z
     d42:	81 68       	ori	r24, 0x81	; 129
     d44:	80 83       	st	Z, r24
     d46:	e1 e9       	ldi	r30, 0x91	; 145
     d48:	f0 e0       	ldi	r31, 0x00	; 0
     d4a:	80 81       	ld	r24, Z
     d4c:	8d 60       	ori	r24, 0x0D	; 13
     d4e:	80 83       	st	Z, r24
     d50:	6b 9a       	sbi	0x0d, 3	; 13
     d52:	08 95       	ret
     d54:	e0 ea       	ldi	r30, 0xA0	; 160
     d56:	f0 e0       	ldi	r31, 0x00	; 0
     d58:	80 81       	ld	r24, Z
     d5a:	81 68       	ori	r24, 0x81	; 129
     d5c:	80 83       	st	Z, r24
     d5e:	e1 ea       	ldi	r30, 0xA1	; 161
     d60:	f0 e0       	ldi	r31, 0x00	; 0
     d62:	80 81       	ld	r24, Z
     d64:	8d 60       	ori	r24, 0x0D	; 13
     d66:	80 83       	st	Z, r24
     d68:	88 e0       	ldi	r24, 0x08	; 8
     d6a:	80 93 01 01 	sts	0x0101, r24	; 0x800101 <__TEXT_REGION_LENGTH__+0x700101>
     d6e:	08 95       	ret
     d70:	e0 e2       	ldi	r30, 0x20	; 32
     d72:	f1 e0       	ldi	r31, 0x01	; 1
     d74:	80 81       	ld	r24, Z
     d76:	81 68       	ori	r24, 0x81	; 129
     d78:	80 83       	st	Z, r24
     d7a:	e1 e2       	ldi	r30, 0x21	; 33
     d7c:	f1 e0       	ldi	r31, 0x01	; 1
     d7e:	80 81       	ld	r24, Z
     d80:	8d 60       	ori	r24, 0x0D	; 13
     d82:	80 83       	st	Z, r24
     d84:	88 e0       	ldi	r24, 0x08	; 8
     d86:	80 93 0a 01 	sts	0x010A, r24	; 0x80010a <__TEXT_REGION_LENGTH__+0x70010a>
     d8a:	08 95       	ret
     d8c:	63 30       	cpi	r22, 0x03	; 3
     d8e:	b1 f0       	breq	.+44     	; 0xdbc <_ZN5Motor13setTimerIndexEcc+0xca>
     d90:	18 f4       	brcc	.+6      	; 0xd98 <_ZN5Motor13setTimerIndexEcc+0xa6>
     d92:	61 30       	cpi	r22, 0x01	; 1
     d94:	39 f0       	breq	.+14     	; 0xda4 <_ZN5Motor13setTimerIndexEcc+0xb2>
     d96:	04 c0       	rjmp	.+8      	; 0xda0 <_ZN5Motor13setTimerIndexEcc+0xae>
     d98:	64 30       	cpi	r22, 0x04	; 4
     d9a:	e1 f0       	breq	.+56     	; 0xdd4 <_ZN5Motor13setTimerIndexEcc+0xe2>
     d9c:	65 30       	cpi	r22, 0x05	; 5
     d9e:	51 f1       	breq	.+84     	; 0xdf4 <_ZN5Motor13setTimerIndexEcc+0x102>
     da0:	81 e0       	ldi	r24, 0x01	; 1
     da2:	82 87       	std	Z+10, r24	; 0x0a
     da4:	e0 e8       	ldi	r30, 0x80	; 128
     da6:	f0 e0       	ldi	r31, 0x00	; 0
     da8:	80 81       	ld	r24, Z
     daa:	81 62       	ori	r24, 0x21	; 33
     dac:	80 83       	st	Z, r24
     dae:	e1 e8       	ldi	r30, 0x81	; 129
     db0:	f0 e0       	ldi	r31, 0x00	; 0
     db2:	80 81       	ld	r24, Z
     db4:	8d 60       	ori	r24, 0x0D	; 13
     db6:	80 83       	st	Z, r24
     db8:	26 9a       	sbi	0x04, 6	; 4
     dba:	08 95       	ret
     dbc:	e0 e9       	ldi	r30, 0x90	; 144
     dbe:	f0 e0       	ldi	r31, 0x00	; 0
     dc0:	80 81       	ld	r24, Z
     dc2:	81 62       	ori	r24, 0x21	; 33
     dc4:	80 83       	st	Z, r24
     dc6:	e1 e9       	ldi	r30, 0x91	; 145
     dc8:	f0 e0       	ldi	r31, 0x00	; 0
     dca:	80 81       	ld	r24, Z
     dcc:	8d 60       	ori	r24, 0x0D	; 13
     dce:	80 83       	st	Z, r24
     dd0:	6c 9a       	sbi	0x0d, 4	; 13
     dd2:	08 95       	ret
     dd4:	e0 ea       	ldi	r30, 0xA0	; 160
     dd6:	f0 e0       	ldi	r31, 0x00	; 0
     dd8:	80 81       	ld	r24, Z
     dda:	81 62       	ori	r24, 0x21	; 33
     ddc:	80 83       	st	Z, r24
     dde:	e1 ea       	ldi	r30, 0xA1	; 161
     de0:	f0 e0       	ldi	r31, 0x00	; 0
     de2:	80 81       	ld	r24, Z
     de4:	8d 60       	ori	r24, 0x0D	; 13
     de6:	80 83       	st	Z, r24
     de8:	e1 e0       	ldi	r30, 0x01	; 1
     dea:	f1 e0       	ldi	r31, 0x01	; 1
     dec:	80 81       	ld	r24, Z
     dee:	80 61       	ori	r24, 0x10	; 16
     df0:	80 83       	st	Z, r24
     df2:	08 95       	ret
     df4:	e0 e2       	ldi	r30, 0x20	; 32
     df6:	f1 e0       	ldi	r31, 0x01	; 1
     df8:	80 81       	ld	r24, Z
     dfa:	81 62       	ori	r24, 0x21	; 33
     dfc:	80 83       	st	Z, r24
     dfe:	e1 e2       	ldi	r30, 0x21	; 33
     e00:	f1 e0       	ldi	r31, 0x01	; 1
     e02:	80 81       	ld	r24, Z
     e04:	8d 60       	ori	r24, 0x0D	; 13
     e06:	80 83       	st	Z, r24
     e08:	ea e0       	ldi	r30, 0x0A	; 10
     e0a:	f1 e0       	ldi	r31, 0x01	; 1
     e0c:	80 81       	ld	r24, Z
     e0e:	80 61       	ori	r24, 0x10	; 16
     e10:	80 83       	st	Z, r24
     e12:	08 95       	ret
     e14:	63 30       	cpi	r22, 0x03	; 3
     e16:	b1 f0       	breq	.+44     	; 0xe44 <_ZN5Motor13setTimerIndexEcc+0x152>
     e18:	18 f4       	brcc	.+6      	; 0xe20 <_ZN5Motor13setTimerIndexEcc+0x12e>
     e1a:	61 30       	cpi	r22, 0x01	; 1
     e1c:	39 f0       	breq	.+14     	; 0xe2c <_ZN5Motor13setTimerIndexEcc+0x13a>
     e1e:	04 c0       	rjmp	.+8      	; 0xe28 <_ZN5Motor13setTimerIndexEcc+0x136>
     e20:	64 30       	cpi	r22, 0x04	; 4
     e22:	e9 f0       	breq	.+58     	; 0xe5e <_ZN5Motor13setTimerIndexEcc+0x16c>
     e24:	65 30       	cpi	r22, 0x05	; 5
     e26:	59 f1       	breq	.+86     	; 0xe7e <_ZN5Motor13setTimerIndexEcc+0x18c>
     e28:	81 e0       	ldi	r24, 0x01	; 1
     e2a:	82 87       	std	Z+10, r24	; 0x0a
     e2c:	e0 e8       	ldi	r30, 0x80	; 128
     e2e:	f0 e0       	ldi	r31, 0x00	; 0
     e30:	80 81       	ld	r24, Z
     e32:	89 60       	ori	r24, 0x09	; 9
     e34:	80 83       	st	Z, r24
     e36:	e1 e8       	ldi	r30, 0x81	; 129
     e38:	f0 e0       	ldi	r31, 0x00	; 0
     e3a:	80 81       	ld	r24, Z
     e3c:	8d 60       	ori	r24, 0x0D	; 13
     e3e:	80 83       	st	Z, r24
     e40:	27 9a       	sbi	0x04, 7	; 4
     e42:	08 95       	ret
     e44:	e0 e9       	ldi	r30, 0x90	; 144
     e46:	f0 e0       	ldi	r31, 0x00	; 0
     e48:	80 81       	ld	r24, Z
     e4a:	89 60       	ori	r24, 0x09	; 9
     e4c:	80 83       	st	Z, r24
     e4e:	e1 e9       	ldi	r30, 0x91	; 145
     e50:	f0 e0       	ldi	r31, 0x00	; 0
     e52:	80 81       	ld	r24, Z
     e54:	8d 60       	ori	r24, 0x0D	; 13
     e56:	80 83       	st	Z, r24
     e58:	80 e2       	ldi	r24, 0x20	; 32
     e5a:	8d b9       	out	0x0d, r24	; 13
     e5c:	08 95       	ret
     e5e:	e0 ea       	ldi	r30, 0xA0	; 160
     e60:	f0 e0       	ldi	r31, 0x00	; 0
     e62:	80 81       	ld	r24, Z
     e64:	89 60       	ori	r24, 0x09	; 9
     e66:	80 83       	st	Z, r24
     e68:	e1 ea       	ldi	r30, 0xA1	; 161
     e6a:	f0 e0       	ldi	r31, 0x00	; 0
     e6c:	80 81       	ld	r24, Z
     e6e:	8d 60       	ori	r24, 0x0D	; 13
     e70:	80 83       	st	Z, r24
     e72:	e1 e0       	ldi	r30, 0x01	; 1
     e74:	f1 e0       	ldi	r31, 0x01	; 1
     e76:	80 81       	ld	r24, Z
     e78:	80 62       	ori	r24, 0x20	; 32
     e7a:	80 83       	st	Z, r24
     e7c:	08 95       	ret
     e7e:	e0 e2       	ldi	r30, 0x20	; 32
     e80:	f1 e0       	ldi	r31, 0x01	; 1
     e82:	80 81       	ld	r24, Z
     e84:	89 60       	ori	r24, 0x09	; 9
     e86:	80 83       	st	Z, r24
     e88:	e1 e2       	ldi	r30, 0x21	; 33
     e8a:	f1 e0       	ldi	r31, 0x01	; 1
     e8c:	80 81       	ld	r24, Z
     e8e:	8d 60       	ori	r24, 0x0D	; 13
     e90:	80 83       	st	Z, r24
     e92:	ea e0       	ldi	r30, 0x0A	; 10
     e94:	f1 e0       	ldi	r31, 0x01	; 1
     e96:	80 81       	ld	r24, Z
     e98:	80 62       	ori	r24, 0x20	; 32
     e9a:	80 83       	st	Z, r24
     e9c:	08 95       	ret

00000e9e <_ZN5Motor13setSwitchPortEcc>:
     e9e:	cf 93       	push	r28
     ea0:	df 93       	push	r29
     ea2:	ec 01       	movw	r28, r24
     ea4:	6c 87       	std	Y+12, r22	; 0x0c
     ea6:	4d 87       	std	Y+13, r20	; 0x0d
     ea8:	48 30       	cpi	r20, 0x08	; 8
     eaa:	28 f4       	brcc	.+10     	; 0xeb6 <_ZN5Motor13setSwitchPortEcc+0x18>
     eac:	67 34       	cpi	r22, 0x47	; 71
     eae:	21 f4       	brne	.+8      	; 0xeb8 <_ZN5Motor13setSwitchPortEcc+0x1a>
     eb0:	46 30       	cpi	r20, 0x06	; 6
     eb2:	08 f4       	brcc	.+2      	; 0xeb6 <_ZN5Motor13setSwitchPortEcc+0x18>
     eb4:	56 c0       	rjmp	.+172    	; 0xf62 <_ZN5Motor13setSwitchPortEcc+0xc4>
     eb6:	1d 86       	std	Y+13, r1	; 0x0d
     eb8:	86 2f       	mov	r24, r22
     eba:	90 e0       	ldi	r25, 0x00	; 0
     ebc:	fc 01       	movw	r30, r24
     ebe:	e2 54       	subi	r30, 0x42	; 66
     ec0:	f1 09       	sbc	r31, r1
     ec2:	eb 30       	cpi	r30, 0x0B	; 11
     ec4:	f1 05       	cpc	r31, r1
     ec6:	28 f4       	brcc	.+10     	; 0xed2 <_ZN5Motor13setSwitchPortEcc+0x34>
     ec8:	88 27       	eor	r24, r24
     eca:	eb 56       	subi	r30, 0x6B	; 107
     ecc:	ff 4f       	sbci	r31, 0xFF	; 255
     ece:	8f 4f       	sbci	r24, 0xFF	; 255
     ed0:	9f c4       	rjmp	.+2366   	; 0x1810 <__tablejump2__>
     ed2:	21 b1       	in	r18, 0x01	; 1
     ed4:	81 e0       	ldi	r24, 0x01	; 1
     ed6:	90 e0       	ldi	r25, 0x00	; 0
     ed8:	0d 84       	ldd	r0, Y+13	; 0x0d
     eda:	02 c0       	rjmp	.+4      	; 0xee0 <_ZN5Motor13setSwitchPortEcc+0x42>
     edc:	88 0f       	add	r24, r24
     ede:	99 1f       	adc	r25, r25
     ee0:	0a 94       	dec	r0
     ee2:	e2 f7       	brpl	.-8      	; 0xedc <_ZN5Motor13setSwitchPortEcc+0x3e>
     ee4:	82 2b       	or	r24, r18
     ee6:	81 b9       	out	0x01, r24	; 1
     ee8:	7f c0       	rjmp	.+254    	; 0xfe8 <_ZN5Motor13setSwitchPortEcc+0x14a>
     eea:	24 b1       	in	r18, 0x04	; 4
     eec:	81 e0       	ldi	r24, 0x01	; 1
     eee:	90 e0       	ldi	r25, 0x00	; 0
     ef0:	0d 84       	ldd	r0, Y+13	; 0x0d
     ef2:	02 c0       	rjmp	.+4      	; 0xef8 <_ZN5Motor13setSwitchPortEcc+0x5a>
     ef4:	88 0f       	add	r24, r24
     ef6:	99 1f       	adc	r25, r25
     ef8:	0a 94       	dec	r0
     efa:	e2 f7       	brpl	.-8      	; 0xef4 <_ZN5Motor13setSwitchPortEcc+0x56>
     efc:	82 2b       	or	r24, r18
     efe:	84 b9       	out	0x04, r24	; 4
     f00:	73 c0       	rjmp	.+230    	; 0xfe8 <_ZN5Motor13setSwitchPortEcc+0x14a>
     f02:	27 b1       	in	r18, 0x07	; 7
     f04:	81 e0       	ldi	r24, 0x01	; 1
     f06:	90 e0       	ldi	r25, 0x00	; 0
     f08:	0d 84       	ldd	r0, Y+13	; 0x0d
     f0a:	02 c0       	rjmp	.+4      	; 0xf10 <_ZN5Motor13setSwitchPortEcc+0x72>
     f0c:	88 0f       	add	r24, r24
     f0e:	99 1f       	adc	r25, r25
     f10:	0a 94       	dec	r0
     f12:	e2 f7       	brpl	.-8      	; 0xf0c <_ZN5Motor13setSwitchPortEcc+0x6e>
     f14:	82 2b       	or	r24, r18
     f16:	87 b9       	out	0x07, r24	; 7
     f18:	67 c0       	rjmp	.+206    	; 0xfe8 <_ZN5Motor13setSwitchPortEcc+0x14a>
     f1a:	2a b1       	in	r18, 0x0a	; 10
     f1c:	81 e0       	ldi	r24, 0x01	; 1
     f1e:	90 e0       	ldi	r25, 0x00	; 0
     f20:	0d 84       	ldd	r0, Y+13	; 0x0d
     f22:	02 c0       	rjmp	.+4      	; 0xf28 <_ZN5Motor13setSwitchPortEcc+0x8a>
     f24:	88 0f       	add	r24, r24
     f26:	99 1f       	adc	r25, r25
     f28:	0a 94       	dec	r0
     f2a:	e2 f7       	brpl	.-8      	; 0xf24 <_ZN5Motor13setSwitchPortEcc+0x86>
     f2c:	82 2b       	or	r24, r18
     f2e:	8a b9       	out	0x0a, r24	; 10
     f30:	5b c0       	rjmp	.+182    	; 0xfe8 <_ZN5Motor13setSwitchPortEcc+0x14a>
     f32:	2d b1       	in	r18, 0x0d	; 13
     f34:	81 e0       	ldi	r24, 0x01	; 1
     f36:	90 e0       	ldi	r25, 0x00	; 0
     f38:	0d 84       	ldd	r0, Y+13	; 0x0d
     f3a:	02 c0       	rjmp	.+4      	; 0xf40 <_ZN5Motor13setSwitchPortEcc+0xa2>
     f3c:	88 0f       	add	r24, r24
     f3e:	99 1f       	adc	r25, r25
     f40:	0a 94       	dec	r0
     f42:	e2 f7       	brpl	.-8      	; 0xf3c <_ZN5Motor13setSwitchPortEcc+0x9e>
     f44:	82 2b       	or	r24, r18
     f46:	8d b9       	out	0x0d, r24	; 13
     f48:	4f c0       	rjmp	.+158    	; 0xfe8 <_ZN5Motor13setSwitchPortEcc+0x14a>
     f4a:	20 b3       	in	r18, 0x10	; 16
     f4c:	81 e0       	ldi	r24, 0x01	; 1
     f4e:	90 e0       	ldi	r25, 0x00	; 0
     f50:	0d 84       	ldd	r0, Y+13	; 0x0d
     f52:	02 c0       	rjmp	.+4      	; 0xf58 <_ZN5Motor13setSwitchPortEcc+0xba>
     f54:	88 0f       	add	r24, r24
     f56:	99 1f       	adc	r25, r25
     f58:	0a 94       	dec	r0
     f5a:	e2 f7       	brpl	.-8      	; 0xf54 <_ZN5Motor13setSwitchPortEcc+0xb6>
     f5c:	82 2b       	or	r24, r18
     f5e:	80 bb       	out	0x10, r24	; 16
     f60:	43 c0       	rjmp	.+134    	; 0xfe8 <_ZN5Motor13setSwitchPortEcc+0x14a>
     f62:	23 b3       	in	r18, 0x13	; 19
     f64:	81 e0       	ldi	r24, 0x01	; 1
     f66:	90 e0       	ldi	r25, 0x00	; 0
     f68:	0d 84       	ldd	r0, Y+13	; 0x0d
     f6a:	02 c0       	rjmp	.+4      	; 0xf70 <_ZN5Motor13setSwitchPortEcc+0xd2>
     f6c:	88 0f       	add	r24, r24
     f6e:	99 1f       	adc	r25, r25
     f70:	0a 94       	dec	r0
     f72:	e2 f7       	brpl	.-8      	; 0xf6c <_ZN5Motor13setSwitchPortEcc+0xce>
     f74:	82 2b       	or	r24, r18
     f76:	83 bb       	out	0x13, r24	; 19
     f78:	37 c0       	rjmp	.+110    	; 0xfe8 <_ZN5Motor13setSwitchPortEcc+0x14a>
     f7a:	e1 e0       	ldi	r30, 0x01	; 1
     f7c:	f1 e0       	ldi	r31, 0x01	; 1
     f7e:	20 81       	ld	r18, Z
     f80:	81 e0       	ldi	r24, 0x01	; 1
     f82:	90 e0       	ldi	r25, 0x00	; 0
     f84:	0d 84       	ldd	r0, Y+13	; 0x0d
     f86:	02 c0       	rjmp	.+4      	; 0xf8c <_ZN5Motor13setSwitchPortEcc+0xee>
     f88:	88 0f       	add	r24, r24
     f8a:	99 1f       	adc	r25, r25
     f8c:	0a 94       	dec	r0
     f8e:	e2 f7       	brpl	.-8      	; 0xf88 <_ZN5Motor13setSwitchPortEcc+0xea>
     f90:	82 2b       	or	r24, r18
     f92:	80 83       	st	Z, r24
     f94:	29 c0       	rjmp	.+82     	; 0xfe8 <_ZN5Motor13setSwitchPortEcc+0x14a>
     f96:	e4 e0       	ldi	r30, 0x04	; 4
     f98:	f1 e0       	ldi	r31, 0x01	; 1
     f9a:	20 81       	ld	r18, Z
     f9c:	81 e0       	ldi	r24, 0x01	; 1
     f9e:	90 e0       	ldi	r25, 0x00	; 0
     fa0:	0d 84       	ldd	r0, Y+13	; 0x0d
     fa2:	02 c0       	rjmp	.+4      	; 0xfa8 <_ZN5Motor13setSwitchPortEcc+0x10a>
     fa4:	88 0f       	add	r24, r24
     fa6:	99 1f       	adc	r25, r25
     fa8:	0a 94       	dec	r0
     faa:	e2 f7       	brpl	.-8      	; 0xfa4 <_ZN5Motor13setSwitchPortEcc+0x106>
     fac:	82 2b       	or	r24, r18
     fae:	80 83       	st	Z, r24
     fb0:	1b c0       	rjmp	.+54     	; 0xfe8 <_ZN5Motor13setSwitchPortEcc+0x14a>
     fb2:	e7 e0       	ldi	r30, 0x07	; 7
     fb4:	f1 e0       	ldi	r31, 0x01	; 1
     fb6:	20 81       	ld	r18, Z
     fb8:	81 e0       	ldi	r24, 0x01	; 1
     fba:	90 e0       	ldi	r25, 0x00	; 0
     fbc:	0d 84       	ldd	r0, Y+13	; 0x0d
     fbe:	02 c0       	rjmp	.+4      	; 0xfc4 <_ZN5Motor13setSwitchPortEcc+0x126>
     fc0:	88 0f       	add	r24, r24
     fc2:	99 1f       	adc	r25, r25
     fc4:	0a 94       	dec	r0
     fc6:	e2 f7       	brpl	.-8      	; 0xfc0 <_ZN5Motor13setSwitchPortEcc+0x122>
     fc8:	82 2b       	or	r24, r18
     fca:	80 83       	st	Z, r24
     fcc:	0d c0       	rjmp	.+26     	; 0xfe8 <_ZN5Motor13setSwitchPortEcc+0x14a>
     fce:	ea e0       	ldi	r30, 0x0A	; 10
     fd0:	f1 e0       	ldi	r31, 0x01	; 1
     fd2:	20 81       	ld	r18, Z
     fd4:	81 e0       	ldi	r24, 0x01	; 1
     fd6:	90 e0       	ldi	r25, 0x00	; 0
     fd8:	0d 84       	ldd	r0, Y+13	; 0x0d
     fda:	02 c0       	rjmp	.+4      	; 0xfe0 <_ZN5Motor13setSwitchPortEcc+0x142>
     fdc:	88 0f       	add	r24, r24
     fde:	99 1f       	adc	r25, r25
     fe0:	0a 94       	dec	r0
     fe2:	e2 f7       	brpl	.-8      	; 0xfdc <_ZN5Motor13setSwitchPortEcc+0x13e>
     fe4:	82 2b       	or	r24, r18
     fe6:	80 83       	st	Z, r24
     fe8:	df 91       	pop	r29
     fea:	cf 91       	pop	r28
     fec:	08 95       	ret

00000fee <_ZN5MotorC1Eccccf>:

Motor::Motor(char timerIndex, char OCRIndex, 
     fee:	6f 92       	push	r6
     ff0:	7f 92       	push	r7
     ff2:	af 92       	push	r10
     ff4:	bf 92       	push	r11
     ff6:	cf 92       	push	r12
     ff8:	df 92       	push	r13
     ffa:	ef 92       	push	r14
     ffc:	ff 92       	push	r15
     ffe:	0f 93       	push	r16
    1000:	1f 93       	push	r17
    1002:	cf 93       	push	r28
    1004:	df 93       	push	r29
    1006:	ec 01       	movw	r28, r24
    1008:	76 2e       	mov	r7, r22
    100a:	64 2e       	mov	r6, r20
    100c:	12 2f       	mov	r17, r18
	char switchPort, char switchPortPin, float acc)
    100e:	5c 01       	movw	r10, r24
    1010:	80 e1       	ldi	r24, 0x10	; 16
    1012:	a8 0e       	add	r10, r24
    1014:	b1 1c       	adc	r11, r1
    1016:	c5 01       	movw	r24, r10
    1018:	c5 d8       	rcall	.-3702   	; 0x1a4 <_ZN5LightC1Ev>
{
	desPWM_ = 0x00;
    101a:	1d 82       	std	Y+5, r1	; 0x05
    101c:	1c 82       	std	Y+4, r1	; 0x04
	currPWM_ = 0x01;
    101e:	80 e0       	ldi	r24, 0x00	; 0
    1020:	90 e0       	ldi	r25, 0x00	; 0
    1022:	a0 e8       	ldi	r26, 0x80	; 128
    1024:	bf e3       	ldi	r27, 0x3F	; 63
    1026:	8e 83       	std	Y+6, r24	; 0x06
    1028:	9f 83       	std	Y+7, r25	; 0x07
    102a:	a8 87       	std	Y+8, r26	; 0x08
    102c:	b9 87       	std	Y+9, r27	; 0x09
	braking_ = false;
    102e:	1e 86       	std	Y+14, r1	; 0x0e
	postBrake_ = false;
    1030:	1f 86       	std	Y+15, r1	; 0x0f
	
	setTimerIndex(timerIndex, OCRIndex);
    1032:	46 2d       	mov	r20, r6
    1034:	67 2d       	mov	r22, r7
    1036:	ce 01       	movw	r24, r28
    1038:	5c de       	rcall	.-840    	; 0xcf2 <_ZN5Motor13setTimerIndexEcc>
	setSwitchPort(switchPort, switchPortPin);
    103a:	40 2f       	mov	r20, r16
    103c:	61 2f       	mov	r22, r17
    103e:	ce 01       	movw	r24, r28
    1040:	2e df       	rcall	.-420    	; 0xe9e <_ZN5Motor13setSwitchPortEcc>
	}
}

void Motor::setAcc(float newAcc)
{
	acc_ = newAcc;
    1042:	c8 82       	st	Y, r12
    1044:	d9 82       	std	Y+1, r13	; 0x01
    1046:	ea 82       	std	Y+2, r14	; 0x02
	setTimerIndex(timerIndex, OCRIndex);
	setSwitchPort(switchPort, switchPortPin);
	
	setAcc(acc);
	
	stopTimer();
    1048:	fb 82       	std	Y+3, r15	; 0x03
    104a:	ce 01       	movw	r24, r28
	setPWM(0);
    104c:	92 dc       	rcall	.-1756   	; 0x972 <_ZN5Motor9stopTimerEv>
    104e:	60 e0       	ldi	r22, 0x00	; 0
    1050:	70 e0       	ldi	r23, 0x00	; 0
    1052:	ce 01       	movw	r24, r28
	
	light_.initPWM();
    1054:	e4 dc       	rcall	.-1592   	; 0xa1e <_ZN5Motor6setPWMEi>
    1056:	c5 01       	movw	r24, r10
    1058:	a6 d8       	rcall	.-3764   	; 0x1a6 <_ZN5Light7initPWMEv>
}
    105a:	df 91       	pop	r29
    105c:	cf 91       	pop	r28
    105e:	1f 91       	pop	r17
    1060:	0f 91       	pop	r16
    1062:	ff 90       	pop	r15
    1064:	ef 90       	pop	r14
    1066:	df 90       	pop	r13
    1068:	cf 90       	pop	r12
    106a:	bf 90       	pop	r11
    106c:	af 90       	pop	r10
    106e:	7f 90       	pop	r7
    1070:	6f 90       	pop	r6
    1072:	08 95       	ret

00001074 <_ZN6SensorC1Ev>:


#include "Sensor.h"


Sensor::Sensor()
    1074:	08 95       	ret

00001076 <_ZN6Sensor14initInterrupt0Ev>:
{
}

void Sensor::initInterrupt0()
{
	EICRA=0b00000011;
    1076:	83 e0       	ldi	r24, 0x03	; 3
    1078:	80 93 69 00 	sts	0x0069, r24	; 0x800069 <__TEXT_REGION_LENGTH__+0x700069>
	EICRB=0b00000000;
    107c:	10 92 6a 00 	sts	0x006A, r1	; 0x80006a <__TEXT_REGION_LENGTH__+0x70006a>
	EIMSK=0b00000001;
    1080:	81 e0       	ldi	r24, 0x01	; 1
    1082:	8d bb       	out	0x1d, r24	; 29
	DDRD = 0x00;
    1084:	1a b8       	out	0x0a, r1	; 10
    1086:	08 95       	ret

00001088 <_ZN6Sensor10initTimer3Ev>:
}

void Sensor::initTimer3()
{
	TCCR3A=0b00000000;
    1088:	10 92 90 00 	sts	0x0090, r1	; 0x800090 <__TEXT_REGION_LENGTH__+0x700090>
	TCCR3B=0b00001101;
    108c:	8d e0       	ldi	r24, 0x0D	; 13
    108e:	80 93 91 00 	sts	0x0091, r24	; 0x800091 <__TEXT_REGION_LENGTH__+0x700091>
	TIMSK3=0b00000011;
    1092:	83 e0       	ldi	r24, 0x03	; 3
    1094:	80 93 71 00 	sts	0x0071, r24	; 0x800071 <__TEXT_REGION_LENGTH__+0x700071>
	TCNT3 = 0;
    1098:	10 92 95 00 	sts	0x0095, r1	; 0x800095 <__TEXT_REGION_LENGTH__+0x700095>
    109c:	10 92 94 00 	sts	0x0094, r1	; 0x800094 <__TEXT_REGION_LENGTH__+0x700094>
	OCR3A=6000;
    10a0:	80 e7       	ldi	r24, 0x70	; 112
    10a2:	97 e1       	ldi	r25, 0x17	; 23
    10a4:	90 93 99 00 	sts	0x0099, r25	; 0x800099 <__TEXT_REGION_LENGTH__+0x700099>
    10a8:	80 93 98 00 	sts	0x0098, r24	; 0x800098 <__TEXT_REGION_LENGTH__+0x700098>
    10ac:	08 95       	ret

000010ae <_ZN6Sensor17disableInterrupt0Ev>:
}

void Sensor::disableInterrupt0()
{
	EIMSK=0b00000000;
    10ae:	1d ba       	out	0x1d, r1	; 29
    10b0:	08 95       	ret

000010b2 <_ZN6Sensor13disableTimer3Ev>:
}

void Sensor::disableTimer3()
{
	TCCR3B=0b00001000;
    10b2:	88 e0       	ldi	r24, 0x08	; 8
    10b4:	80 93 91 00 	sts	0x0091, r24	; 0x800091 <__TEXT_REGION_LENGTH__+0x700091>
	TIMSK3=0b00000000;
    10b8:	10 92 71 00 	sts	0x0071, r1	; 0x800071 <__TEXT_REGION_LENGTH__+0x700071>
    10bc:	08 95       	ret

000010be <_ZN6Sensor16enableInterrupt0Ev>:
}

void Sensor::enableInterrupt0()
{
	EIMSK=0b00000001;
    10be:	81 e0       	ldi	r24, 0x01	; 1
    10c0:	8d bb       	out	0x1d, r24	; 29
    10c2:	08 95       	ret

000010c4 <_ZN6Sensor12enableTimer3Ev>:
}

void Sensor::enableTimer3()
{
	TCCR3B=0b00001101;
    10c4:	8d e0       	ldi	r24, 0x0D	; 13
    10c6:	80 93 91 00 	sts	0x0091, r24	; 0x800091 <__TEXT_REGION_LENGTH__+0x700091>
	TIMSK3=0b00000011;
    10ca:	83 e0       	ldi	r24, 0x03	; 3
    10cc:	80 93 71 00 	sts	0x0071, r24	; 0x800071 <__TEXT_REGION_LENGTH__+0x700071>
    10d0:	08 95       	ret

000010d2 <_ZN5SoundC1Ev>:


#include "Sound.h"

// default constructor
Sound::Sound()
    10d2:	08 95       	ret

000010d4 <_ZN5Sound9InitUART0Emhch>:
{
}

void Sound::InitUART0(unsigned long BaudRate, unsigned char DataBit, char Parity, unsigned char Rx_Int)
{
    10d4:	ef 92       	push	r14
    10d6:	0f 93       	push	r16
    10d8:	cf 93       	push	r28
    10da:	c2 2f       	mov	r28, r18
	if ((BaudRate >= 300) && (BaudRate <= 115200) && (DataBit >= 5) && (DataBit <= 8)) {
    10dc:	db 01       	movw	r26, r22
    10de:	ca 01       	movw	r24, r20
    10e0:	8c 52       	subi	r24, 0x2C	; 44
    10e2:	91 40       	sbci	r25, 0x01	; 1
    10e4:	a1 09       	sbc	r26, r1
    10e6:	b1 09       	sbc	r27, r1
    10e8:	85 3d       	cpi	r24, 0xD5	; 213
    10ea:	90 4c       	sbci	r25, 0xC0	; 192
    10ec:	a1 40       	sbci	r26, 0x01	; 1
    10ee:	b1 05       	cpc	r27, r1
    10f0:	08 f0       	brcs	.+2      	; 0x10f4 <_ZN5Sound9InitUART0Emhch+0x20>
    10f2:	78 c0       	rjmp	.+240    	; 0x11e4 <_ZN5Sound9InitUART0Emhch+0x110>
    10f4:	8b ef       	ldi	r24, 0xFB	; 251
    10f6:	8c 0f       	add	r24, r28
    10f8:	84 30       	cpi	r24, 0x04	; 4
    10fa:	08 f0       	brcs	.+2      	; 0x10fe <_ZN5Sound9InitUART0Emhch+0x2a>
    10fc:	73 c0       	rjmp	.+230    	; 0x11e4 <_ZN5Sound9InitUART0Emhch+0x110>
		UCSR1A = 0b00100000;  //Der må skrives til UDR
    10fe:	80 e2       	ldi	r24, 0x20	; 32
    1100:	80 93 c8 00 	sts	0x00C8, r24	; 0x8000c8 <__TEXT_REGION_LENGTH__+0x7000c8>
		UCSR1B = 0b00011000;  //Enabler sender og modtager
    1104:	88 e1       	ldi	r24, 0x18	; 24
    1106:	80 93 c9 00 	sts	0x00C9, r24	; 0x8000c9 <__TEXT_REGION_LENGTH__+0x7000c9>
		UCSR1C = 0b00000000;  //Default async mode, no parity, 1 stopbit, 5 databits
    110a:	10 92 ca 00 	sts	0x00CA, r1	; 0x8000ca <__TEXT_REGION_LENGTH__+0x7000ca>
		
		UBRR1 = (XTAL + (8 * BaudRate)) / (16 * BaudRate) - 1; // sætter baudrate
    110e:	db 01       	movw	r26, r22
    1110:	ca 01       	movw	r24, r20
    1112:	80 58       	subi	r24, 0x80	; 128
    1114:	9b 47       	sbci	r25, 0x7B	; 123
    1116:	a1 4e       	sbci	r26, 0xE1	; 225
    1118:	bf 4f       	sbci	r27, 0xFF	; 255
    111a:	88 0f       	add	r24, r24
    111c:	99 1f       	adc	r25, r25
    111e:	aa 1f       	adc	r26, r26
    1120:	bb 1f       	adc	r27, r27
    1122:	88 0f       	add	r24, r24
    1124:	99 1f       	adc	r25, r25
    1126:	aa 1f       	adc	r26, r26
    1128:	bb 1f       	adc	r27, r27
    112a:	88 0f       	add	r24, r24
    112c:	99 1f       	adc	r25, r25
    112e:	aa 1f       	adc	r26, r26
    1130:	bb 1f       	adc	r27, r27
    1132:	44 0f       	add	r20, r20
    1134:	55 1f       	adc	r21, r21
    1136:	66 1f       	adc	r22, r22
    1138:	77 1f       	adc	r23, r23
    113a:	44 0f       	add	r20, r20
    113c:	55 1f       	adc	r21, r21
    113e:	66 1f       	adc	r22, r22
    1140:	77 1f       	adc	r23, r23
    1142:	9a 01       	movw	r18, r20
    1144:	ab 01       	movw	r20, r22
    1146:	22 0f       	add	r18, r18
    1148:	33 1f       	adc	r19, r19
    114a:	44 1f       	adc	r20, r20
    114c:	55 1f       	adc	r21, r21
    114e:	22 0f       	add	r18, r18
    1150:	33 1f       	adc	r19, r19
    1152:	44 1f       	adc	r20, r20
    1154:	55 1f       	adc	r21, r21
    1156:	bc 01       	movw	r22, r24
    1158:	cd 01       	movw	r24, r26
    115a:	38 d3       	rcall	.+1648   	; 0x17cc <__udivmodsi4>
    115c:	21 50       	subi	r18, 0x01	; 1
    115e:	31 09       	sbc	r19, r1
    1160:	30 93 cd 00 	sts	0x00CD, r19	; 0x8000cd <__TEXT_REGION_LENGTH__+0x7000cd>
    1164:	20 93 cc 00 	sts	0x00CC, r18	; 0x8000cc <__TEXT_REGION_LENGTH__+0x7000cc>
		
		//Sætter databit
		if (DataBit == 8) {
    1168:	c8 30       	cpi	r28, 0x08	; 8
    116a:	31 f4       	brne	.+12     	; 0x1178 <_ZN5Sound9InitUART0Emhch+0xa4>
			UCSR1C |= 0b00000110;
    116c:	ea ec       	ldi	r30, 0xCA	; 202
    116e:	f0 e0       	ldi	r31, 0x00	; 0
    1170:	80 81       	ld	r24, Z
    1172:	86 60       	ori	r24, 0x06	; 6
    1174:	80 83       	st	Z, r24
    1176:	16 c0       	rjmp	.+44     	; 0x11a4 <_ZN5Sound9InitUART0Emhch+0xd0>
		}
		else if (DataBit == 7) {
    1178:	c7 30       	cpi	r28, 0x07	; 7
    117a:	31 f4       	brne	.+12     	; 0x1188 <_ZN5Sound9InitUART0Emhch+0xb4>
			UCSR1C |= 0b00000100;
    117c:	ea ec       	ldi	r30, 0xCA	; 202
    117e:	f0 e0       	ldi	r31, 0x00	; 0
    1180:	80 81       	ld	r24, Z
    1182:	84 60       	ori	r24, 0x04	; 4
    1184:	80 83       	st	Z, r24
    1186:	0e c0       	rjmp	.+28     	; 0x11a4 <_ZN5Sound9InitUART0Emhch+0xd0>
		}
		else if (DataBit == 6) {
    1188:	c6 30       	cpi	r28, 0x06	; 6
    118a:	31 f4       	brne	.+12     	; 0x1198 <_ZN5Sound9InitUART0Emhch+0xc4>
			UCSR1C |= 0b00000010;
    118c:	ea ec       	ldi	r30, 0xCA	; 202
    118e:	f0 e0       	ldi	r31, 0x00	; 0
    1190:	80 81       	ld	r24, Z
    1192:	82 60       	ori	r24, 0x02	; 2
    1194:	80 83       	st	Z, r24
    1196:	06 c0       	rjmp	.+12     	; 0x11a4 <_ZN5Sound9InitUART0Emhch+0xd0>
		}
		else if (DataBit == 5) {
    1198:	c5 30       	cpi	r28, 0x05	; 5
    119a:	21 f4       	brne	.+8      	; 0x11a4 <_ZN5Sound9InitUART0Emhch+0xd0>
			UCSR1C |= 0b00000000;
    119c:	ea ec       	ldi	r30, 0xCA	; 202
    119e:	f0 e0       	ldi	r31, 0x00	; 0
    11a0:	80 81       	ld	r24, Z
    11a2:	80 83       	st	Z, r24
		}
		
		//sætter paritet
		if (Parity == 'E') {
    11a4:	05 34       	cpi	r16, 0x45	; 69
    11a6:	31 f4       	brne	.+12     	; 0x11b4 <_ZN5Sound9InitUART0Emhch+0xe0>
			UCSR1C |= 0b00100000;
    11a8:	ea ec       	ldi	r30, 0xCA	; 202
    11aa:	f0 e0       	ldi	r31, 0x00	; 0
    11ac:	80 81       	ld	r24, Z
    11ae:	80 62       	ori	r24, 0x20	; 32
    11b0:	80 83       	st	Z, r24
    11b2:	0c c0       	rjmp	.+24     	; 0x11cc <_ZN5Sound9InitUART0Emhch+0xf8>
			} else if (Parity == 'O') {
    11b4:	0f 34       	cpi	r16, 0x4F	; 79
    11b6:	31 f4       	brne	.+12     	; 0x11c4 <_ZN5Sound9InitUART0Emhch+0xf0>
			UCSR1C |= 0b00110000;
    11b8:	ea ec       	ldi	r30, 0xCA	; 202
    11ba:	f0 e0       	ldi	r31, 0x00	; 0
    11bc:	80 81       	ld	r24, Z
    11be:	80 63       	ori	r24, 0x30	; 48
    11c0:	80 83       	st	Z, r24
    11c2:	04 c0       	rjmp	.+8      	; 0x11cc <_ZN5Sound9InitUART0Emhch+0xf8>
			} else {
			UCSR1C |= 0b00000000;
    11c4:	ea ec       	ldi	r30, 0xCA	; 202
    11c6:	f0 e0       	ldi	r31, 0x00	; 0
    11c8:	80 81       	ld	r24, Z
    11ca:	80 83       	st	Z, r24
		}
		
		//enabler/disabler RX(modtager) interrupt
		if (Rx_Int == 0) {
    11cc:	e1 10       	cpse	r14, r1
    11ce:	05 c0       	rjmp	.+10     	; 0x11da <_ZN5Sound9InitUART0Emhch+0x106>
			UCSR1B |= 0b00000000;
    11d0:	e9 ec       	ldi	r30, 0xC9	; 201
    11d2:	f0 e0       	ldi	r31, 0x00	; 0
    11d4:	80 81       	ld	r24, Z
    11d6:	80 83       	st	Z, r24
    11d8:	05 c0       	rjmp	.+10     	; 0x11e4 <_ZN5Sound9InitUART0Emhch+0x110>
			} else if (Rx_Int != 0) {
			UCSR1B |= 0b10000000;
    11da:	e9 ec       	ldi	r30, 0xC9	; 201
    11dc:	f0 e0       	ldi	r31, 0x00	; 0
    11de:	80 81       	ld	r24, Z
    11e0:	80 68       	ori	r24, 0x80	; 128
    11e2:	80 83       	st	Z, r24
		}
	}
}
    11e4:	cf 91       	pop	r28
    11e6:	0f 91       	pop	r16
    11e8:	ef 90       	pop	r14
    11ea:	08 95       	ret

000011ec <_ZN5Sound11SendIntegerEi>:

void Sound::SendInteger(int tal)
{
	while((UCSR1A & 0b00100000) != 0b00100000)  //Venter på at UDR er klar til at modtage ny del af command
    11ec:	e8 ec       	ldi	r30, 0xC8	; 200
    11ee:	f0 e0       	ldi	r31, 0x00	; 0
    11f0:	80 81       	ld	r24, Z
    11f2:	85 ff       	sbrs	r24, 5
    11f4:	fd cf       	rjmp	.-6      	; 0x11f0 <_ZN5Sound11SendIntegerEi+0x4>
	{}
	
	UDR1 = tal; //Send command til SOMO II
    11f6:	60 93 ce 00 	sts	0x00CE, r22	; 0x8000ce <__TEXT_REGION_LENGTH__+0x7000ce>
    11fa:	08 95       	ret

000011fc <_ZN5Sound8InitSOMOEv>:
}

void Sound::InitSOMO()
{
    11fc:	af 92       	push	r10
    11fe:	bf 92       	push	r11
    1200:	cf 92       	push	r12
    1202:	df 92       	push	r13
    1204:	ef 92       	push	r14
    1206:	ff 92       	push	r15
    1208:	0f 93       	push	r16
    120a:	1f 93       	push	r17
    120c:	cf 93       	push	r28
    120e:	df 93       	push	r29
    1210:	cd b7       	in	r28, 0x3d	; 61
    1212:	de b7       	in	r29, 0x3e	; 62
    1214:	60 97       	sbiw	r28, 0x10	; 16
    1216:	0f b6       	in	r0, 0x3f	; 63
    1218:	f8 94       	cli
    121a:	de bf       	out	0x3e, r29	; 62
    121c:	0f be       	out	0x3f, r0	; 63
    121e:	cd bf       	out	0x3d, r28	; 61
    1220:	6c 01       	movw	r12, r24
	int command1[SIZE_COMMAND] = {0x7E, 0x04, 0x00, 0x00, 0x00, 0xFF, 0xFC, 0xEF}; //skru volumen op på 28
    1222:	80 e1       	ldi	r24, 0x10	; 16
    1224:	e0 e0       	ldi	r30, 0x00	; 0
    1226:	f2 e0       	ldi	r31, 0x02	; 2
    1228:	de 01       	movw	r26, r28
    122a:	11 96       	adiw	r26, 0x01	; 1
    122c:	01 90       	ld	r0, Z+
    122e:	0d 92       	st	X+, r0
    1230:	8a 95       	dec	r24
    1232:	e1 f7       	brne	.-8      	; 0x122c <_ZN5Sound8InitSOMOEv+0x30>
    1234:	68 94       	set
    1236:	aa 24       	eor	r10, r10
    1238:	a3 f8       	bld	r10, 3
    123a:	b1 2c       	mov	r11, r1
    123c:	7e 01       	movw	r14, r28
    123e:	81 e1       	ldi	r24, 0x11	; 17
    1240:	e8 0e       	add	r14, r24
    1242:	f1 1c       	adc	r15, r1
    1244:	8e 01       	movw	r16, r28
    1246:	0f 5f       	subi	r16, 0xFF	; 255
    1248:	1f 4f       	sbci	r17, 0xFF	; 255
	
	for (int i = 0; i < 8; i++)
	{
		for (int j = 0; j < SIZE_COMMAND; j++)
		{
			SendInteger(command1[j]);
    124a:	f8 01       	movw	r30, r16
    124c:	61 91       	ld	r22, Z+
    124e:	71 91       	ld	r23, Z+
    1250:	8f 01       	movw	r16, r30
    1252:	c6 01       	movw	r24, r12
    1254:	cb df       	rcall	.-106    	; 0x11ec <_ZN5Sound11SendIntegerEi>
{
	int command1[SIZE_COMMAND] = {0x7E, 0x04, 0x00, 0x00, 0x00, 0xFF, 0xFC, 0xEF}; //skru volumen op på 28
	
	for (int i = 0; i < 8; i++)
	{
		for (int j = 0; j < SIZE_COMMAND; j++)
    1256:	0e 15       	cp	r16, r14
    1258:	1f 05       	cpc	r17, r15
    125a:	b9 f7       	brne	.-18     	; 0x124a <_ZN5Sound8InitSOMOEv+0x4e>
    125c:	f1 e0       	ldi	r31, 0x01	; 1
    125e:	af 1a       	sub	r10, r31
    1260:	b1 08       	sbc	r11, r1

void Sound::InitSOMO()
{
	int command1[SIZE_COMMAND] = {0x7E, 0x04, 0x00, 0x00, 0x00, 0xFF, 0xFC, 0xEF}; //skru volumen op på 28
	
	for (int i = 0; i < 8; i++)
    1262:	81 f7       	brne	.-32     	; 0x1244 <_ZN5Sound8InitSOMOEv+0x48>
		for (int j = 0; j < SIZE_COMMAND; j++)
		{
			SendInteger(command1[j]);
		}
	}
}
    1264:	60 96       	adiw	r28, 0x10	; 16
    1266:	0f b6       	in	r0, 0x3f	; 63
    1268:	f8 94       	cli
    126a:	de bf       	out	0x3e, r29	; 62
    126c:	0f be       	out	0x3f, r0	; 63
    126e:	cd bf       	out	0x3d, r28	; 61
    1270:	df 91       	pop	r29
    1272:	cf 91       	pop	r28
    1274:	1f 91       	pop	r17
    1276:	0f 91       	pop	r16
    1278:	ff 90       	pop	r15
    127a:	ef 90       	pop	r14
    127c:	df 90       	pop	r13
    127e:	cf 90       	pop	r12
    1280:	bf 90       	pop	r11
    1282:	af 90       	pop	r10
    1284:	08 95       	ret

00001286 <_ZN5Sound9playSoundEc>:

void Sound::playSound(char lydNr)
{
    1286:	cf 92       	push	r12
    1288:	df 92       	push	r13
    128a:	ef 92       	push	r14
    128c:	ff 92       	push	r15
    128e:	0f 93       	push	r16
    1290:	1f 93       	push	r17
    1292:	cf 93       	push	r28
    1294:	df 93       	push	r29
    1296:	cd b7       	in	r28, 0x3d	; 61
    1298:	de b7       	in	r29, 0x3e	; 62
    129a:	e0 97       	sbiw	r28, 0x30	; 48
    129c:	0f b6       	in	r0, 0x3f	; 63
    129e:	f8 94       	cli
    12a0:	de bf       	out	0x3e, r29	; 62
    12a2:	0f be       	out	0x3f, r0	; 63
    12a4:	cd bf       	out	0x3d, r28	; 61
    12a6:	8c 01       	movw	r16, r24
	int command1[SIZE_COMMAND] = {0x7E, 0x03, 0x00, 0x00, 0x01, 0xFF, 0xFC, 0xEF};  //start første lyd
    12a8:	80 e1       	ldi	r24, 0x10	; 16
    12aa:	e0 e1       	ldi	r30, 0x10	; 16
    12ac:	f2 e0       	ldi	r31, 0x02	; 2
    12ae:	de 01       	movw	r26, r28
    12b0:	11 96       	adiw	r26, 0x01	; 1
    12b2:	01 90       	ld	r0, Z+
    12b4:	0d 92       	st	X+, r0
    12b6:	8a 95       	dec	r24
    12b8:	e1 f7       	brne	.-8      	; 0x12b2 <_ZN5Sound9playSoundEc+0x2c>
	int command2[SIZE_COMMAND] = {0x7E, 0x03, 0x00, 0x00, 0x02, 0xFF, 0xFB, 0xEF};  //start anden lyd
    12ba:	80 e1       	ldi	r24, 0x10	; 16
    12bc:	e0 e2       	ldi	r30, 0x20	; 32
    12be:	f2 e0       	ldi	r31, 0x02	; 2
    12c0:	de 01       	movw	r26, r28
    12c2:	51 96       	adiw	r26, 0x11	; 17
    12c4:	01 90       	ld	r0, Z+
    12c6:	0d 92       	st	X+, r0
    12c8:	8a 95       	dec	r24
    12ca:	e1 f7       	brne	.-8      	; 0x12c4 <_ZN5Sound9playSoundEc+0x3e>
	int command3[SIZE_COMMAND] = {0x7E, 0x03, 0x00, 0x00, 0x03, 0xFF, 0xFA, 0xEF};  //start tredje lyd
    12cc:	80 e1       	ldi	r24, 0x10	; 16
    12ce:	e0 e3       	ldi	r30, 0x30	; 48
    12d0:	f2 e0       	ldi	r31, 0x02	; 2
    12d2:	de 01       	movw	r26, r28
    12d4:	91 96       	adiw	r26, 0x21	; 33
    12d6:	01 90       	ld	r0, Z+
    12d8:	0d 92       	st	X+, r0
    12da:	8a 95       	dec	r24
    12dc:	e1 f7       	brne	.-8      	; 0x12d6 <_ZN5Sound9playSoundEc+0x50>
	
	switch (lydNr)
    12de:	61 30       	cpi	r22, 0x01	; 1
    12e0:	a9 f0       	breq	.+42     	; 0x130c <_ZN5Sound9playSoundEc+0x86>
    12e2:	18 f0       	brcs	.+6      	; 0x12ea <_ZN5Sound9playSoundEc+0x64>
    12e4:	62 30       	cpi	r22, 0x02	; 2
    12e6:	21 f1       	breq	.+72     	; 0x1330 <_ZN5Sound9playSoundEc+0xaa>
    12e8:	34 c0       	rjmp	.+104    	; 0x1352 <_ZN5Sound9playSoundEc+0xcc>
    12ea:	ce 01       	movw	r24, r28
    12ec:	01 96       	adiw	r24, 0x01	; 1
    12ee:	7c 01       	movw	r14, r24
    12f0:	6e 01       	movw	r12, r28
    12f2:	91 e1       	ldi	r25, 0x11	; 17
    12f4:	c9 0e       	add	r12, r25
    12f6:	d1 1c       	adc	r13, r1
	{
		case 0:
		for (int i = 0; i < SIZE_COMMAND; i++)
		{
			SendInteger(command1[i]);  //I am speed spiller i starten
    12f8:	f7 01       	movw	r30, r14
    12fa:	61 91       	ld	r22, Z+
    12fc:	71 91       	ld	r23, Z+
    12fe:	7f 01       	movw	r14, r30
    1300:	c8 01       	movw	r24, r16
    1302:	74 df       	rcall	.-280    	; 0x11ec <_ZN5Sound11SendIntegerEi>
	int command3[SIZE_COMMAND] = {0x7E, 0x03, 0x00, 0x00, 0x03, 0xFF, 0xFA, 0xEF};  //start tredje lyd
	
	switch (lydNr)
	{
		case 0:
		for (int i = 0; i < SIZE_COMMAND; i++)
    1304:	ce 14       	cp	r12, r14
    1306:	df 04       	cpc	r13, r15
    1308:	b9 f7       	brne	.-18     	; 0x12f8 <_ZN5Sound9playSoundEc+0x72>
    130a:	23 c0       	rjmp	.+70     	; 0x1352 <_ZN5Sound9playSoundEc+0xcc>
    130c:	7e 01       	movw	r14, r28
    130e:	f1 e1       	ldi	r31, 0x11	; 17
    1310:	ef 0e       	add	r14, r31
    1312:	f1 1c       	adc	r15, r1
    1314:	6e 01       	movw	r12, r28
    1316:	81 e2       	ldi	r24, 0x21	; 33
    1318:	c8 0e       	add	r12, r24
    131a:	d1 1c       	adc	r13, r1
		}
		break;
		case 1:
		for (int i = 0; i < SIZE_COMMAND; i++)
		{
			SendInteger(command2[i]);  //Katchow! spiller når en refleks er passeret
    131c:	f7 01       	movw	r30, r14
    131e:	61 91       	ld	r22, Z+
    1320:	71 91       	ld	r23, Z+
    1322:	7f 01       	movw	r14, r30
    1324:	c8 01       	movw	r24, r16
    1326:	62 df       	rcall	.-316    	; 0x11ec <_ZN5Sound11SendIntegerEi>
		{
			SendInteger(command1[i]);  //I am speed spiller i starten
		}
		break;
		case 1:
		for (int i = 0; i < SIZE_COMMAND; i++)
    1328:	ec 14       	cp	r14, r12
    132a:	fd 04       	cpc	r15, r13
    132c:	b9 f7       	brne	.-18     	; 0x131c <_ZN5Sound9playSoundEc+0x96>
    132e:	11 c0       	rjmp	.+34     	; 0x1352 <_ZN5Sound9playSoundEc+0xcc>
    1330:	7e 01       	movw	r14, r28
    1332:	f1 e2       	ldi	r31, 0x21	; 33
    1334:	ef 0e       	add	r14, r31
    1336:	f1 1c       	adc	r15, r1
    1338:	6e 01       	movw	r12, r28
    133a:	81 e3       	ldi	r24, 0x31	; 49
    133c:	c8 0e       	add	r12, r24
    133e:	d1 1c       	adc	r13, r1
		}
		break;
		case 2:  //eller hvad sidste refleksbrik nu er af nummer
		for (int i = 0; i < SIZE_COMMAND; i++)
		{
			SendInteger(command3[i]);  //Spiller en slutlyd når banen er færdig
    1340:	f7 01       	movw	r30, r14
    1342:	61 91       	ld	r22, Z+
    1344:	71 91       	ld	r23, Z+
    1346:	7f 01       	movw	r14, r30
    1348:	c8 01       	movw	r24, r16
    134a:	50 df       	rcall	.-352    	; 0x11ec <_ZN5Sound11SendIntegerEi>
		{
			SendInteger(command2[i]);  //Katchow! spiller når en refleks er passeret
		}
		break;
		case 2:  //eller hvad sidste refleksbrik nu er af nummer
		for (int i = 0; i < SIZE_COMMAND; i++)
    134c:	ce 14       	cp	r12, r14
    134e:	df 04       	cpc	r13, r15
    1350:	b9 f7       	brne	.-18     	; 0x1340 <_ZN5Sound9playSoundEc+0xba>
		{
			SendInteger(command3[i]);  //Spiller en slutlyd når banen er færdig
		}
		break;
	}
}
    1352:	e0 96       	adiw	r28, 0x30	; 48
    1354:	0f b6       	in	r0, 0x3f	; 63
    1356:	f8 94       	cli
    1358:	de bf       	out	0x3e, r29	; 62
    135a:	0f be       	out	0x3f, r0	; 63
    135c:	cd bf       	out	0x3d, r28	; 61
    135e:	df 91       	pop	r29
    1360:	cf 91       	pop	r28
    1362:	1f 91       	pop	r17
    1364:	0f 91       	pop	r16
    1366:	ff 90       	pop	r15
    1368:	ef 90       	pop	r14
    136a:	df 90       	pop	r13
    136c:	cf 90       	pop	r12
    136e:	08 95       	ret

00001370 <__subsf3>:
    1370:	50 58       	subi	r21, 0x80	; 128

00001372 <__addsf3>:
    1372:	bb 27       	eor	r27, r27
    1374:	aa 27       	eor	r26, r26
    1376:	0e d0       	rcall	.+28     	; 0x1394 <__addsf3x>
    1378:	75 c1       	rjmp	.+746    	; 0x1664 <__fp_round>
    137a:	66 d1       	rcall	.+716    	; 0x1648 <__fp_pscA>
    137c:	30 f0       	brcs	.+12     	; 0x138a <__addsf3+0x18>
    137e:	6b d1       	rcall	.+726    	; 0x1656 <__fp_pscB>
    1380:	20 f0       	brcs	.+8      	; 0x138a <__addsf3+0x18>
    1382:	31 f4       	brne	.+12     	; 0x1390 <__addsf3+0x1e>
    1384:	9f 3f       	cpi	r25, 0xFF	; 255
    1386:	11 f4       	brne	.+4      	; 0x138c <__addsf3+0x1a>
    1388:	1e f4       	brtc	.+6      	; 0x1390 <__addsf3+0x1e>
    138a:	5b c1       	rjmp	.+694    	; 0x1642 <__fp_nan>
    138c:	0e f4       	brtc	.+2      	; 0x1390 <__addsf3+0x1e>
    138e:	e0 95       	com	r30
    1390:	e7 fb       	bst	r30, 7
    1392:	51 c1       	rjmp	.+674    	; 0x1636 <__fp_inf>

00001394 <__addsf3x>:
    1394:	e9 2f       	mov	r30, r25
    1396:	77 d1       	rcall	.+750    	; 0x1686 <__fp_split3>
    1398:	80 f3       	brcs	.-32     	; 0x137a <__addsf3+0x8>
    139a:	ba 17       	cp	r27, r26
    139c:	62 07       	cpc	r22, r18
    139e:	73 07       	cpc	r23, r19
    13a0:	84 07       	cpc	r24, r20
    13a2:	95 07       	cpc	r25, r21
    13a4:	18 f0       	brcs	.+6      	; 0x13ac <__addsf3x+0x18>
    13a6:	71 f4       	brne	.+28     	; 0x13c4 <__addsf3x+0x30>
    13a8:	9e f5       	brtc	.+102    	; 0x1410 <__addsf3x+0x7c>
    13aa:	8f c1       	rjmp	.+798    	; 0x16ca <__fp_zero>
    13ac:	0e f4       	brtc	.+2      	; 0x13b0 <__addsf3x+0x1c>
    13ae:	e0 95       	com	r30
    13b0:	0b 2e       	mov	r0, r27
    13b2:	ba 2f       	mov	r27, r26
    13b4:	a0 2d       	mov	r26, r0
    13b6:	0b 01       	movw	r0, r22
    13b8:	b9 01       	movw	r22, r18
    13ba:	90 01       	movw	r18, r0
    13bc:	0c 01       	movw	r0, r24
    13be:	ca 01       	movw	r24, r20
    13c0:	a0 01       	movw	r20, r0
    13c2:	11 24       	eor	r1, r1
    13c4:	ff 27       	eor	r31, r31
    13c6:	59 1b       	sub	r21, r25
    13c8:	99 f0       	breq	.+38     	; 0x13f0 <__addsf3x+0x5c>
    13ca:	59 3f       	cpi	r21, 0xF9	; 249
    13cc:	50 f4       	brcc	.+20     	; 0x13e2 <__addsf3x+0x4e>
    13ce:	50 3e       	cpi	r21, 0xE0	; 224
    13d0:	68 f1       	brcs	.+90     	; 0x142c <__addsf3x+0x98>
    13d2:	1a 16       	cp	r1, r26
    13d4:	f0 40       	sbci	r31, 0x00	; 0
    13d6:	a2 2f       	mov	r26, r18
    13d8:	23 2f       	mov	r18, r19
    13da:	34 2f       	mov	r19, r20
    13dc:	44 27       	eor	r20, r20
    13de:	58 5f       	subi	r21, 0xF8	; 248
    13e0:	f3 cf       	rjmp	.-26     	; 0x13c8 <__addsf3x+0x34>
    13e2:	46 95       	lsr	r20
    13e4:	37 95       	ror	r19
    13e6:	27 95       	ror	r18
    13e8:	a7 95       	ror	r26
    13ea:	f0 40       	sbci	r31, 0x00	; 0
    13ec:	53 95       	inc	r21
    13ee:	c9 f7       	brne	.-14     	; 0x13e2 <__addsf3x+0x4e>
    13f0:	7e f4       	brtc	.+30     	; 0x1410 <__addsf3x+0x7c>
    13f2:	1f 16       	cp	r1, r31
    13f4:	ba 0b       	sbc	r27, r26
    13f6:	62 0b       	sbc	r22, r18
    13f8:	73 0b       	sbc	r23, r19
    13fa:	84 0b       	sbc	r24, r20
    13fc:	ba f0       	brmi	.+46     	; 0x142c <__addsf3x+0x98>
    13fe:	91 50       	subi	r25, 0x01	; 1
    1400:	a1 f0       	breq	.+40     	; 0x142a <__addsf3x+0x96>
    1402:	ff 0f       	add	r31, r31
    1404:	bb 1f       	adc	r27, r27
    1406:	66 1f       	adc	r22, r22
    1408:	77 1f       	adc	r23, r23
    140a:	88 1f       	adc	r24, r24
    140c:	c2 f7       	brpl	.-16     	; 0x13fe <__addsf3x+0x6a>
    140e:	0e c0       	rjmp	.+28     	; 0x142c <__addsf3x+0x98>
    1410:	ba 0f       	add	r27, r26
    1412:	62 1f       	adc	r22, r18
    1414:	73 1f       	adc	r23, r19
    1416:	84 1f       	adc	r24, r20
    1418:	48 f4       	brcc	.+18     	; 0x142c <__addsf3x+0x98>
    141a:	87 95       	ror	r24
    141c:	77 95       	ror	r23
    141e:	67 95       	ror	r22
    1420:	b7 95       	ror	r27
    1422:	f7 95       	ror	r31
    1424:	9e 3f       	cpi	r25, 0xFE	; 254
    1426:	08 f0       	brcs	.+2      	; 0x142a <__addsf3x+0x96>
    1428:	b3 cf       	rjmp	.-154    	; 0x1390 <__addsf3+0x1e>
    142a:	93 95       	inc	r25
    142c:	88 0f       	add	r24, r24
    142e:	08 f0       	brcs	.+2      	; 0x1432 <__addsf3x+0x9e>
    1430:	99 27       	eor	r25, r25
    1432:	ee 0f       	add	r30, r30
    1434:	97 95       	ror	r25
    1436:	87 95       	ror	r24
    1438:	08 95       	ret

0000143a <__cmpsf2>:
    143a:	d9 d0       	rcall	.+434    	; 0x15ee <__fp_cmp>
    143c:	08 f4       	brcc	.+2      	; 0x1440 <__cmpsf2+0x6>
    143e:	81 e0       	ldi	r24, 0x01	; 1
    1440:	08 95       	ret

00001442 <__divsf3>:
    1442:	0c d0       	rcall	.+24     	; 0x145c <__divsf3x>
    1444:	0f c1       	rjmp	.+542    	; 0x1664 <__fp_round>
    1446:	07 d1       	rcall	.+526    	; 0x1656 <__fp_pscB>
    1448:	40 f0       	brcs	.+16     	; 0x145a <__divsf3+0x18>
    144a:	fe d0       	rcall	.+508    	; 0x1648 <__fp_pscA>
    144c:	30 f0       	brcs	.+12     	; 0x145a <__divsf3+0x18>
    144e:	21 f4       	brne	.+8      	; 0x1458 <__divsf3+0x16>
    1450:	5f 3f       	cpi	r21, 0xFF	; 255
    1452:	19 f0       	breq	.+6      	; 0x145a <__divsf3+0x18>
    1454:	f0 c0       	rjmp	.+480    	; 0x1636 <__fp_inf>
    1456:	51 11       	cpse	r21, r1
    1458:	39 c1       	rjmp	.+626    	; 0x16cc <__fp_szero>
    145a:	f3 c0       	rjmp	.+486    	; 0x1642 <__fp_nan>

0000145c <__divsf3x>:
    145c:	14 d1       	rcall	.+552    	; 0x1686 <__fp_split3>
    145e:	98 f3       	brcs	.-26     	; 0x1446 <__divsf3+0x4>

00001460 <__divsf3_pse>:
    1460:	99 23       	and	r25, r25
    1462:	c9 f3       	breq	.-14     	; 0x1456 <__divsf3+0x14>
    1464:	55 23       	and	r21, r21
    1466:	b1 f3       	breq	.-20     	; 0x1454 <__divsf3+0x12>
    1468:	95 1b       	sub	r25, r21
    146a:	55 0b       	sbc	r21, r21
    146c:	bb 27       	eor	r27, r27
    146e:	aa 27       	eor	r26, r26
    1470:	62 17       	cp	r22, r18
    1472:	73 07       	cpc	r23, r19
    1474:	84 07       	cpc	r24, r20
    1476:	38 f0       	brcs	.+14     	; 0x1486 <__divsf3_pse+0x26>
    1478:	9f 5f       	subi	r25, 0xFF	; 255
    147a:	5f 4f       	sbci	r21, 0xFF	; 255
    147c:	22 0f       	add	r18, r18
    147e:	33 1f       	adc	r19, r19
    1480:	44 1f       	adc	r20, r20
    1482:	aa 1f       	adc	r26, r26
    1484:	a9 f3       	breq	.-22     	; 0x1470 <__divsf3_pse+0x10>
    1486:	33 d0       	rcall	.+102    	; 0x14ee <__divsf3_pse+0x8e>
    1488:	0e 2e       	mov	r0, r30
    148a:	3a f0       	brmi	.+14     	; 0x149a <__divsf3_pse+0x3a>
    148c:	e0 e8       	ldi	r30, 0x80	; 128
    148e:	30 d0       	rcall	.+96     	; 0x14f0 <__divsf3_pse+0x90>
    1490:	91 50       	subi	r25, 0x01	; 1
    1492:	50 40       	sbci	r21, 0x00	; 0
    1494:	e6 95       	lsr	r30
    1496:	00 1c       	adc	r0, r0
    1498:	ca f7       	brpl	.-14     	; 0x148c <__divsf3_pse+0x2c>
    149a:	29 d0       	rcall	.+82     	; 0x14ee <__divsf3_pse+0x8e>
    149c:	fe 2f       	mov	r31, r30
    149e:	27 d0       	rcall	.+78     	; 0x14ee <__divsf3_pse+0x8e>
    14a0:	66 0f       	add	r22, r22
    14a2:	77 1f       	adc	r23, r23
    14a4:	88 1f       	adc	r24, r24
    14a6:	bb 1f       	adc	r27, r27
    14a8:	26 17       	cp	r18, r22
    14aa:	37 07       	cpc	r19, r23
    14ac:	48 07       	cpc	r20, r24
    14ae:	ab 07       	cpc	r26, r27
    14b0:	b0 e8       	ldi	r27, 0x80	; 128
    14b2:	09 f0       	breq	.+2      	; 0x14b6 <__divsf3_pse+0x56>
    14b4:	bb 0b       	sbc	r27, r27
    14b6:	80 2d       	mov	r24, r0
    14b8:	bf 01       	movw	r22, r30
    14ba:	ff 27       	eor	r31, r31
    14bc:	93 58       	subi	r25, 0x83	; 131
    14be:	5f 4f       	sbci	r21, 0xFF	; 255
    14c0:	2a f0       	brmi	.+10     	; 0x14cc <__divsf3_pse+0x6c>
    14c2:	9e 3f       	cpi	r25, 0xFE	; 254
    14c4:	51 05       	cpc	r21, r1
    14c6:	68 f0       	brcs	.+26     	; 0x14e2 <__divsf3_pse+0x82>
    14c8:	b6 c0       	rjmp	.+364    	; 0x1636 <__fp_inf>
    14ca:	00 c1       	rjmp	.+512    	; 0x16cc <__fp_szero>
    14cc:	5f 3f       	cpi	r21, 0xFF	; 255
    14ce:	ec f3       	brlt	.-6      	; 0x14ca <__divsf3_pse+0x6a>
    14d0:	98 3e       	cpi	r25, 0xE8	; 232
    14d2:	dc f3       	brlt	.-10     	; 0x14ca <__divsf3_pse+0x6a>
    14d4:	86 95       	lsr	r24
    14d6:	77 95       	ror	r23
    14d8:	67 95       	ror	r22
    14da:	b7 95       	ror	r27
    14dc:	f7 95       	ror	r31
    14de:	9f 5f       	subi	r25, 0xFF	; 255
    14e0:	c9 f7       	brne	.-14     	; 0x14d4 <__divsf3_pse+0x74>
    14e2:	88 0f       	add	r24, r24
    14e4:	91 1d       	adc	r25, r1
    14e6:	96 95       	lsr	r25
    14e8:	87 95       	ror	r24
    14ea:	97 f9       	bld	r25, 7
    14ec:	08 95       	ret
    14ee:	e1 e0       	ldi	r30, 0x01	; 1
    14f0:	66 0f       	add	r22, r22
    14f2:	77 1f       	adc	r23, r23
    14f4:	88 1f       	adc	r24, r24
    14f6:	bb 1f       	adc	r27, r27
    14f8:	62 17       	cp	r22, r18
    14fa:	73 07       	cpc	r23, r19
    14fc:	84 07       	cpc	r24, r20
    14fe:	ba 07       	cpc	r27, r26
    1500:	20 f0       	brcs	.+8      	; 0x150a <__divsf3_pse+0xaa>
    1502:	62 1b       	sub	r22, r18
    1504:	73 0b       	sbc	r23, r19
    1506:	84 0b       	sbc	r24, r20
    1508:	ba 0b       	sbc	r27, r26
    150a:	ee 1f       	adc	r30, r30
    150c:	88 f7       	brcc	.-30     	; 0x14f0 <__divsf3_pse+0x90>
    150e:	e0 95       	com	r30
    1510:	08 95       	ret

00001512 <__fixsfsi>:
    1512:	04 d0       	rcall	.+8      	; 0x151c <__fixunssfsi>
    1514:	68 94       	set
    1516:	b1 11       	cpse	r27, r1
    1518:	d9 c0       	rjmp	.+434    	; 0x16cc <__fp_szero>
    151a:	08 95       	ret

0000151c <__fixunssfsi>:
    151c:	bc d0       	rcall	.+376    	; 0x1696 <__fp_splitA>
    151e:	88 f0       	brcs	.+34     	; 0x1542 <__fixunssfsi+0x26>
    1520:	9f 57       	subi	r25, 0x7F	; 127
    1522:	90 f0       	brcs	.+36     	; 0x1548 <__fixunssfsi+0x2c>
    1524:	b9 2f       	mov	r27, r25
    1526:	99 27       	eor	r25, r25
    1528:	b7 51       	subi	r27, 0x17	; 23
    152a:	a0 f0       	brcs	.+40     	; 0x1554 <__fixunssfsi+0x38>
    152c:	d1 f0       	breq	.+52     	; 0x1562 <__fixunssfsi+0x46>
    152e:	66 0f       	add	r22, r22
    1530:	77 1f       	adc	r23, r23
    1532:	88 1f       	adc	r24, r24
    1534:	99 1f       	adc	r25, r25
    1536:	1a f0       	brmi	.+6      	; 0x153e <__fixunssfsi+0x22>
    1538:	ba 95       	dec	r27
    153a:	c9 f7       	brne	.-14     	; 0x152e <__fixunssfsi+0x12>
    153c:	12 c0       	rjmp	.+36     	; 0x1562 <__fixunssfsi+0x46>
    153e:	b1 30       	cpi	r27, 0x01	; 1
    1540:	81 f0       	breq	.+32     	; 0x1562 <__fixunssfsi+0x46>
    1542:	c3 d0       	rcall	.+390    	; 0x16ca <__fp_zero>
    1544:	b1 e0       	ldi	r27, 0x01	; 1
    1546:	08 95       	ret
    1548:	c0 c0       	rjmp	.+384    	; 0x16ca <__fp_zero>
    154a:	67 2f       	mov	r22, r23
    154c:	78 2f       	mov	r23, r24
    154e:	88 27       	eor	r24, r24
    1550:	b8 5f       	subi	r27, 0xF8	; 248
    1552:	39 f0       	breq	.+14     	; 0x1562 <__fixunssfsi+0x46>
    1554:	b9 3f       	cpi	r27, 0xF9	; 249
    1556:	cc f3       	brlt	.-14     	; 0x154a <__fixunssfsi+0x2e>
    1558:	86 95       	lsr	r24
    155a:	77 95       	ror	r23
    155c:	67 95       	ror	r22
    155e:	b3 95       	inc	r27
    1560:	d9 f7       	brne	.-10     	; 0x1558 <__fixunssfsi+0x3c>
    1562:	3e f4       	brtc	.+14     	; 0x1572 <__fixunssfsi+0x56>
    1564:	90 95       	com	r25
    1566:	80 95       	com	r24
    1568:	70 95       	com	r23
    156a:	61 95       	neg	r22
    156c:	7f 4f       	sbci	r23, 0xFF	; 255
    156e:	8f 4f       	sbci	r24, 0xFF	; 255
    1570:	9f 4f       	sbci	r25, 0xFF	; 255
    1572:	08 95       	ret

00001574 <__floatunsisf>:
    1574:	e8 94       	clt
    1576:	09 c0       	rjmp	.+18     	; 0x158a <__floatsisf+0x12>

00001578 <__floatsisf>:
    1578:	97 fb       	bst	r25, 7
    157a:	3e f4       	brtc	.+14     	; 0x158a <__floatsisf+0x12>
    157c:	90 95       	com	r25
    157e:	80 95       	com	r24
    1580:	70 95       	com	r23
    1582:	61 95       	neg	r22
    1584:	7f 4f       	sbci	r23, 0xFF	; 255
    1586:	8f 4f       	sbci	r24, 0xFF	; 255
    1588:	9f 4f       	sbci	r25, 0xFF	; 255
    158a:	99 23       	and	r25, r25
    158c:	a9 f0       	breq	.+42     	; 0x15b8 <__floatsisf+0x40>
    158e:	f9 2f       	mov	r31, r25
    1590:	96 e9       	ldi	r25, 0x96	; 150
    1592:	bb 27       	eor	r27, r27
    1594:	93 95       	inc	r25
    1596:	f6 95       	lsr	r31
    1598:	87 95       	ror	r24
    159a:	77 95       	ror	r23
    159c:	67 95       	ror	r22
    159e:	b7 95       	ror	r27
    15a0:	f1 11       	cpse	r31, r1
    15a2:	f8 cf       	rjmp	.-16     	; 0x1594 <__floatsisf+0x1c>
    15a4:	fa f4       	brpl	.+62     	; 0x15e4 <__floatsisf+0x6c>
    15a6:	bb 0f       	add	r27, r27
    15a8:	11 f4       	brne	.+4      	; 0x15ae <__floatsisf+0x36>
    15aa:	60 ff       	sbrs	r22, 0
    15ac:	1b c0       	rjmp	.+54     	; 0x15e4 <__floatsisf+0x6c>
    15ae:	6f 5f       	subi	r22, 0xFF	; 255
    15b0:	7f 4f       	sbci	r23, 0xFF	; 255
    15b2:	8f 4f       	sbci	r24, 0xFF	; 255
    15b4:	9f 4f       	sbci	r25, 0xFF	; 255
    15b6:	16 c0       	rjmp	.+44     	; 0x15e4 <__floatsisf+0x6c>
    15b8:	88 23       	and	r24, r24
    15ba:	11 f0       	breq	.+4      	; 0x15c0 <__floatsisf+0x48>
    15bc:	96 e9       	ldi	r25, 0x96	; 150
    15be:	11 c0       	rjmp	.+34     	; 0x15e2 <__floatsisf+0x6a>
    15c0:	77 23       	and	r23, r23
    15c2:	21 f0       	breq	.+8      	; 0x15cc <__floatsisf+0x54>
    15c4:	9e e8       	ldi	r25, 0x8E	; 142
    15c6:	87 2f       	mov	r24, r23
    15c8:	76 2f       	mov	r23, r22
    15ca:	05 c0       	rjmp	.+10     	; 0x15d6 <__floatsisf+0x5e>
    15cc:	66 23       	and	r22, r22
    15ce:	71 f0       	breq	.+28     	; 0x15ec <__floatsisf+0x74>
    15d0:	96 e8       	ldi	r25, 0x86	; 134
    15d2:	86 2f       	mov	r24, r22
    15d4:	70 e0       	ldi	r23, 0x00	; 0
    15d6:	60 e0       	ldi	r22, 0x00	; 0
    15d8:	2a f0       	brmi	.+10     	; 0x15e4 <__floatsisf+0x6c>
    15da:	9a 95       	dec	r25
    15dc:	66 0f       	add	r22, r22
    15de:	77 1f       	adc	r23, r23
    15e0:	88 1f       	adc	r24, r24
    15e2:	da f7       	brpl	.-10     	; 0x15da <__floatsisf+0x62>
    15e4:	88 0f       	add	r24, r24
    15e6:	96 95       	lsr	r25
    15e8:	87 95       	ror	r24
    15ea:	97 f9       	bld	r25, 7
    15ec:	08 95       	ret

000015ee <__fp_cmp>:
    15ee:	99 0f       	add	r25, r25
    15f0:	00 08       	sbc	r0, r0
    15f2:	55 0f       	add	r21, r21
    15f4:	aa 0b       	sbc	r26, r26
    15f6:	e0 e8       	ldi	r30, 0x80	; 128
    15f8:	fe ef       	ldi	r31, 0xFE	; 254
    15fa:	16 16       	cp	r1, r22
    15fc:	17 06       	cpc	r1, r23
    15fe:	e8 07       	cpc	r30, r24
    1600:	f9 07       	cpc	r31, r25
    1602:	c0 f0       	brcs	.+48     	; 0x1634 <__fp_cmp+0x46>
    1604:	12 16       	cp	r1, r18
    1606:	13 06       	cpc	r1, r19
    1608:	e4 07       	cpc	r30, r20
    160a:	f5 07       	cpc	r31, r21
    160c:	98 f0       	brcs	.+38     	; 0x1634 <__fp_cmp+0x46>
    160e:	62 1b       	sub	r22, r18
    1610:	73 0b       	sbc	r23, r19
    1612:	84 0b       	sbc	r24, r20
    1614:	95 0b       	sbc	r25, r21
    1616:	39 f4       	brne	.+14     	; 0x1626 <__fp_cmp+0x38>
    1618:	0a 26       	eor	r0, r26
    161a:	61 f0       	breq	.+24     	; 0x1634 <__fp_cmp+0x46>
    161c:	23 2b       	or	r18, r19
    161e:	24 2b       	or	r18, r20
    1620:	25 2b       	or	r18, r21
    1622:	21 f4       	brne	.+8      	; 0x162c <__fp_cmp+0x3e>
    1624:	08 95       	ret
    1626:	0a 26       	eor	r0, r26
    1628:	09 f4       	brne	.+2      	; 0x162c <__fp_cmp+0x3e>
    162a:	a1 40       	sbci	r26, 0x01	; 1
    162c:	a6 95       	lsr	r26
    162e:	8f ef       	ldi	r24, 0xFF	; 255
    1630:	81 1d       	adc	r24, r1
    1632:	81 1d       	adc	r24, r1
    1634:	08 95       	ret

00001636 <__fp_inf>:
    1636:	97 f9       	bld	r25, 7
    1638:	9f 67       	ori	r25, 0x7F	; 127
    163a:	80 e8       	ldi	r24, 0x80	; 128
    163c:	70 e0       	ldi	r23, 0x00	; 0
    163e:	60 e0       	ldi	r22, 0x00	; 0
    1640:	08 95       	ret

00001642 <__fp_nan>:
    1642:	9f ef       	ldi	r25, 0xFF	; 255
    1644:	80 ec       	ldi	r24, 0xC0	; 192
    1646:	08 95       	ret

00001648 <__fp_pscA>:
    1648:	00 24       	eor	r0, r0
    164a:	0a 94       	dec	r0
    164c:	16 16       	cp	r1, r22
    164e:	17 06       	cpc	r1, r23
    1650:	18 06       	cpc	r1, r24
    1652:	09 06       	cpc	r0, r25
    1654:	08 95       	ret

00001656 <__fp_pscB>:
    1656:	00 24       	eor	r0, r0
    1658:	0a 94       	dec	r0
    165a:	12 16       	cp	r1, r18
    165c:	13 06       	cpc	r1, r19
    165e:	14 06       	cpc	r1, r20
    1660:	05 06       	cpc	r0, r21
    1662:	08 95       	ret

00001664 <__fp_round>:
    1664:	09 2e       	mov	r0, r25
    1666:	03 94       	inc	r0
    1668:	00 0c       	add	r0, r0
    166a:	11 f4       	brne	.+4      	; 0x1670 <__fp_round+0xc>
    166c:	88 23       	and	r24, r24
    166e:	52 f0       	brmi	.+20     	; 0x1684 <__fp_round+0x20>
    1670:	bb 0f       	add	r27, r27
    1672:	40 f4       	brcc	.+16     	; 0x1684 <__fp_round+0x20>
    1674:	bf 2b       	or	r27, r31
    1676:	11 f4       	brne	.+4      	; 0x167c <__fp_round+0x18>
    1678:	60 ff       	sbrs	r22, 0
    167a:	04 c0       	rjmp	.+8      	; 0x1684 <__fp_round+0x20>
    167c:	6f 5f       	subi	r22, 0xFF	; 255
    167e:	7f 4f       	sbci	r23, 0xFF	; 255
    1680:	8f 4f       	sbci	r24, 0xFF	; 255
    1682:	9f 4f       	sbci	r25, 0xFF	; 255
    1684:	08 95       	ret

00001686 <__fp_split3>:
    1686:	57 fd       	sbrc	r21, 7
    1688:	90 58       	subi	r25, 0x80	; 128
    168a:	44 0f       	add	r20, r20
    168c:	55 1f       	adc	r21, r21
    168e:	59 f0       	breq	.+22     	; 0x16a6 <__fp_splitA+0x10>
    1690:	5f 3f       	cpi	r21, 0xFF	; 255
    1692:	71 f0       	breq	.+28     	; 0x16b0 <__fp_splitA+0x1a>
    1694:	47 95       	ror	r20

00001696 <__fp_splitA>:
    1696:	88 0f       	add	r24, r24
    1698:	97 fb       	bst	r25, 7
    169a:	99 1f       	adc	r25, r25
    169c:	61 f0       	breq	.+24     	; 0x16b6 <__fp_splitA+0x20>
    169e:	9f 3f       	cpi	r25, 0xFF	; 255
    16a0:	79 f0       	breq	.+30     	; 0x16c0 <__fp_splitA+0x2a>
    16a2:	87 95       	ror	r24
    16a4:	08 95       	ret
    16a6:	12 16       	cp	r1, r18
    16a8:	13 06       	cpc	r1, r19
    16aa:	14 06       	cpc	r1, r20
    16ac:	55 1f       	adc	r21, r21
    16ae:	f2 cf       	rjmp	.-28     	; 0x1694 <__fp_split3+0xe>
    16b0:	46 95       	lsr	r20
    16b2:	f1 df       	rcall	.-30     	; 0x1696 <__fp_splitA>
    16b4:	08 c0       	rjmp	.+16     	; 0x16c6 <__fp_splitA+0x30>
    16b6:	16 16       	cp	r1, r22
    16b8:	17 06       	cpc	r1, r23
    16ba:	18 06       	cpc	r1, r24
    16bc:	99 1f       	adc	r25, r25
    16be:	f1 cf       	rjmp	.-30     	; 0x16a2 <__fp_splitA+0xc>
    16c0:	86 95       	lsr	r24
    16c2:	71 05       	cpc	r23, r1
    16c4:	61 05       	cpc	r22, r1
    16c6:	08 94       	sec
    16c8:	08 95       	ret

000016ca <__fp_zero>:
    16ca:	e8 94       	clt

000016cc <__fp_szero>:
    16cc:	bb 27       	eor	r27, r27
    16ce:	66 27       	eor	r22, r22
    16d0:	77 27       	eor	r23, r23
    16d2:	cb 01       	movw	r24, r22
    16d4:	97 f9       	bld	r25, 7
    16d6:	08 95       	ret

000016d8 <__gesf2>:
    16d8:	8a df       	rcall	.-236    	; 0x15ee <__fp_cmp>
    16da:	08 f4       	brcc	.+2      	; 0x16de <__gesf2+0x6>
    16dc:	8f ef       	ldi	r24, 0xFF	; 255
    16de:	08 95       	ret

000016e0 <__mulsf3>:
    16e0:	0b d0       	rcall	.+22     	; 0x16f8 <__mulsf3x>
    16e2:	c0 cf       	rjmp	.-128    	; 0x1664 <__fp_round>
    16e4:	b1 df       	rcall	.-158    	; 0x1648 <__fp_pscA>
    16e6:	28 f0       	brcs	.+10     	; 0x16f2 <__mulsf3+0x12>
    16e8:	b6 df       	rcall	.-148    	; 0x1656 <__fp_pscB>
    16ea:	18 f0       	brcs	.+6      	; 0x16f2 <__mulsf3+0x12>
    16ec:	95 23       	and	r25, r21
    16ee:	09 f0       	breq	.+2      	; 0x16f2 <__mulsf3+0x12>
    16f0:	a2 cf       	rjmp	.-188    	; 0x1636 <__fp_inf>
    16f2:	a7 cf       	rjmp	.-178    	; 0x1642 <__fp_nan>
    16f4:	11 24       	eor	r1, r1
    16f6:	ea cf       	rjmp	.-44     	; 0x16cc <__fp_szero>

000016f8 <__mulsf3x>:
    16f8:	c6 df       	rcall	.-116    	; 0x1686 <__fp_split3>
    16fa:	a0 f3       	brcs	.-24     	; 0x16e4 <__mulsf3+0x4>

000016fc <__mulsf3_pse>:
    16fc:	95 9f       	mul	r25, r21
    16fe:	d1 f3       	breq	.-12     	; 0x16f4 <__mulsf3+0x14>
    1700:	95 0f       	add	r25, r21
    1702:	50 e0       	ldi	r21, 0x00	; 0
    1704:	55 1f       	adc	r21, r21
    1706:	62 9f       	mul	r22, r18
    1708:	f0 01       	movw	r30, r0
    170a:	72 9f       	mul	r23, r18
    170c:	bb 27       	eor	r27, r27
    170e:	f0 0d       	add	r31, r0
    1710:	b1 1d       	adc	r27, r1
    1712:	63 9f       	mul	r22, r19
    1714:	aa 27       	eor	r26, r26
    1716:	f0 0d       	add	r31, r0
    1718:	b1 1d       	adc	r27, r1
    171a:	aa 1f       	adc	r26, r26
    171c:	64 9f       	mul	r22, r20
    171e:	66 27       	eor	r22, r22
    1720:	b0 0d       	add	r27, r0
    1722:	a1 1d       	adc	r26, r1
    1724:	66 1f       	adc	r22, r22
    1726:	82 9f       	mul	r24, r18
    1728:	22 27       	eor	r18, r18
    172a:	b0 0d       	add	r27, r0
    172c:	a1 1d       	adc	r26, r1
    172e:	62 1f       	adc	r22, r18
    1730:	73 9f       	mul	r23, r19
    1732:	b0 0d       	add	r27, r0
    1734:	a1 1d       	adc	r26, r1
    1736:	62 1f       	adc	r22, r18
    1738:	83 9f       	mul	r24, r19
    173a:	a0 0d       	add	r26, r0
    173c:	61 1d       	adc	r22, r1
    173e:	22 1f       	adc	r18, r18
    1740:	74 9f       	mul	r23, r20
    1742:	33 27       	eor	r19, r19
    1744:	a0 0d       	add	r26, r0
    1746:	61 1d       	adc	r22, r1
    1748:	23 1f       	adc	r18, r19
    174a:	84 9f       	mul	r24, r20
    174c:	60 0d       	add	r22, r0
    174e:	21 1d       	adc	r18, r1
    1750:	82 2f       	mov	r24, r18
    1752:	76 2f       	mov	r23, r22
    1754:	6a 2f       	mov	r22, r26
    1756:	11 24       	eor	r1, r1
    1758:	9f 57       	subi	r25, 0x7F	; 127
    175a:	50 40       	sbci	r21, 0x00	; 0
    175c:	8a f0       	brmi	.+34     	; 0x1780 <__mulsf3_pse+0x84>
    175e:	e1 f0       	breq	.+56     	; 0x1798 <__mulsf3_pse+0x9c>
    1760:	88 23       	and	r24, r24
    1762:	4a f0       	brmi	.+18     	; 0x1776 <__mulsf3_pse+0x7a>
    1764:	ee 0f       	add	r30, r30
    1766:	ff 1f       	adc	r31, r31
    1768:	bb 1f       	adc	r27, r27
    176a:	66 1f       	adc	r22, r22
    176c:	77 1f       	adc	r23, r23
    176e:	88 1f       	adc	r24, r24
    1770:	91 50       	subi	r25, 0x01	; 1
    1772:	50 40       	sbci	r21, 0x00	; 0
    1774:	a9 f7       	brne	.-22     	; 0x1760 <__mulsf3_pse+0x64>
    1776:	9e 3f       	cpi	r25, 0xFE	; 254
    1778:	51 05       	cpc	r21, r1
    177a:	70 f0       	brcs	.+28     	; 0x1798 <__mulsf3_pse+0x9c>
    177c:	5c cf       	rjmp	.-328    	; 0x1636 <__fp_inf>
    177e:	a6 cf       	rjmp	.-180    	; 0x16cc <__fp_szero>
    1780:	5f 3f       	cpi	r21, 0xFF	; 255
    1782:	ec f3       	brlt	.-6      	; 0x177e <__mulsf3_pse+0x82>
    1784:	98 3e       	cpi	r25, 0xE8	; 232
    1786:	dc f3       	brlt	.-10     	; 0x177e <__mulsf3_pse+0x82>
    1788:	86 95       	lsr	r24
    178a:	77 95       	ror	r23
    178c:	67 95       	ror	r22
    178e:	b7 95       	ror	r27
    1790:	f7 95       	ror	r31
    1792:	e7 95       	ror	r30
    1794:	9f 5f       	subi	r25, 0xFF	; 255
    1796:	c1 f7       	brne	.-16     	; 0x1788 <__mulsf3_pse+0x8c>
    1798:	fe 2b       	or	r31, r30
    179a:	88 0f       	add	r24, r24
    179c:	91 1d       	adc	r25, r1
    179e:	96 95       	lsr	r25
    17a0:	87 95       	ror	r24
    17a2:	97 f9       	bld	r25, 7
    17a4:	08 95       	ret

000017a6 <__divmodhi4>:
    17a6:	97 fb       	bst	r25, 7
    17a8:	07 2e       	mov	r0, r23
    17aa:	16 f4       	brtc	.+4      	; 0x17b0 <__divmodhi4+0xa>
    17ac:	00 94       	com	r0
    17ae:	06 d0       	rcall	.+12     	; 0x17bc <__divmodhi4_neg1>
    17b0:	77 fd       	sbrc	r23, 7
    17b2:	08 d0       	rcall	.+16     	; 0x17c4 <__divmodhi4_neg2>
    17b4:	35 d0       	rcall	.+106    	; 0x1820 <__udivmodhi4>
    17b6:	07 fc       	sbrc	r0, 7
    17b8:	05 d0       	rcall	.+10     	; 0x17c4 <__divmodhi4_neg2>
    17ba:	3e f4       	brtc	.+14     	; 0x17ca <__divmodhi4_exit>

000017bc <__divmodhi4_neg1>:
    17bc:	90 95       	com	r25
    17be:	81 95       	neg	r24
    17c0:	9f 4f       	sbci	r25, 0xFF	; 255
    17c2:	08 95       	ret

000017c4 <__divmodhi4_neg2>:
    17c4:	70 95       	com	r23
    17c6:	61 95       	neg	r22
    17c8:	7f 4f       	sbci	r23, 0xFF	; 255

000017ca <__divmodhi4_exit>:
    17ca:	08 95       	ret

000017cc <__udivmodsi4>:
    17cc:	a1 e2       	ldi	r26, 0x21	; 33
    17ce:	1a 2e       	mov	r1, r26
    17d0:	aa 1b       	sub	r26, r26
    17d2:	bb 1b       	sub	r27, r27
    17d4:	fd 01       	movw	r30, r26
    17d6:	0d c0       	rjmp	.+26     	; 0x17f2 <__udivmodsi4_ep>

000017d8 <__udivmodsi4_loop>:
    17d8:	aa 1f       	adc	r26, r26
    17da:	bb 1f       	adc	r27, r27
    17dc:	ee 1f       	adc	r30, r30
    17de:	ff 1f       	adc	r31, r31
    17e0:	a2 17       	cp	r26, r18
    17e2:	b3 07       	cpc	r27, r19
    17e4:	e4 07       	cpc	r30, r20
    17e6:	f5 07       	cpc	r31, r21
    17e8:	20 f0       	brcs	.+8      	; 0x17f2 <__udivmodsi4_ep>
    17ea:	a2 1b       	sub	r26, r18
    17ec:	b3 0b       	sbc	r27, r19
    17ee:	e4 0b       	sbc	r30, r20
    17f0:	f5 0b       	sbc	r31, r21

000017f2 <__udivmodsi4_ep>:
    17f2:	66 1f       	adc	r22, r22
    17f4:	77 1f       	adc	r23, r23
    17f6:	88 1f       	adc	r24, r24
    17f8:	99 1f       	adc	r25, r25
    17fa:	1a 94       	dec	r1
    17fc:	69 f7       	brne	.-38     	; 0x17d8 <__udivmodsi4_loop>
    17fe:	60 95       	com	r22
    1800:	70 95       	com	r23
    1802:	80 95       	com	r24
    1804:	90 95       	com	r25
    1806:	9b 01       	movw	r18, r22
    1808:	ac 01       	movw	r20, r24
    180a:	bd 01       	movw	r22, r26
    180c:	cf 01       	movw	r24, r30
    180e:	08 95       	ret

00001810 <__tablejump2__>:
    1810:	ee 0f       	add	r30, r30
    1812:	ff 1f       	adc	r31, r31
    1814:	88 1f       	adc	r24, r24
    1816:	8b bf       	out	0x3b, r24	; 59
    1818:	07 90       	elpm	r0, Z+
    181a:	f6 91       	elpm	r31, Z
    181c:	e0 2d       	mov	r30, r0
    181e:	19 94       	eijmp

00001820 <__udivmodhi4>:
    1820:	aa 1b       	sub	r26, r26
    1822:	bb 1b       	sub	r27, r27
    1824:	51 e1       	ldi	r21, 0x11	; 17
    1826:	07 c0       	rjmp	.+14     	; 0x1836 <__udivmodhi4_ep>

00001828 <__udivmodhi4_loop>:
    1828:	aa 1f       	adc	r26, r26
    182a:	bb 1f       	adc	r27, r27
    182c:	a6 17       	cp	r26, r22
    182e:	b7 07       	cpc	r27, r23
    1830:	10 f0       	brcs	.+4      	; 0x1836 <__udivmodhi4_ep>
    1832:	a6 1b       	sub	r26, r22
    1834:	b7 0b       	sbc	r27, r23

00001836 <__udivmodhi4_ep>:
    1836:	88 1f       	adc	r24, r24
    1838:	99 1f       	adc	r25, r25
    183a:	5a 95       	dec	r21
    183c:	a9 f7       	brne	.-22     	; 0x1828 <__udivmodhi4_loop>
    183e:	80 95       	com	r24
    1840:	90 95       	com	r25
    1842:	bc 01       	movw	r22, r24
    1844:	cd 01       	movw	r24, r26
    1846:	08 95       	ret

00001848 <_exit>:
    1848:	f8 94       	cli

0000184a <__stop_program>:
    184a:	ff cf       	rjmp	.-2      	; 0x184a <__stop_program>
